

Microchip Technology PIC18 LITE Macro Assembler V2.00 build -1524193055 
                                                                                               Wed Jan 02 22:07:31 2019

Microchip Technology Omniscient Code Generator v2.00 (Free mode) build 20180527130849
     1  0000                     
     2                           ; Version 2.00
     3                           ; Generated 27/05/2018 GMT
     4                           
     5                           ; 
     6                           ; Copyright © 2018, Microchip Technology Inc. and its subsidiaries ("Microchip")
     7                           ; All rights reserved.
     8                           ; 
     9                           ; This software is developed by Microchip Technology Inc. and its subsidiaries ("Microch
                                 ip").
    10                           ; 
    11                           ; Redistribution and use in source and binary forms, with or without modification, are
    12                           ; permitted provided that the following conditions are met:
    13                           ; 
    14                           ;     1. Redistributions of source code must retain the above copyright notice, this lis
                                 t of
    15                           ;        conditions and the following disclaimer.
    16                           ; 
    17                           ;     2. Redistributions in binary form must reproduce the above copyright notice, this 
                                 list
    18                           ;        of conditions and the following disclaimer in the documentation and/or other
    19                           ;        materials provided with the distribution.
    20                           ; 
    21                           ;     3. Microchip's name may not be used to endorse or promote products derived from th
                                 is
    22                           ;        software without specific prior written permission.
    23                           ; 
    24                           ; THIS SOFTWARE IS PROVIDED BY MICROCHIP "AS IS" AND ANY EXPRESS OR IMPLIED WARRANTIES,

    25                           ; INCLUDING, BUT NOT LIMITED TO, THE IMPLIED WARRANTIES OF MERCHANTABILITY AND FITNESS F
                                 OR
    26                           ; PURPOSE ARE DISCLAIMED.  IN NO EVENT SHALL MICROCHIP BE LIABLE FOR ANY DIRECT, INDIREC
                                 T,
    27                           ; INCIDENTAL, SPECIAL, EXEMPLARY, OR CONSEQUENTIAL DAMAGES (INCLUDING BUT NOT LIMITED TO
                                 
    28                           ; PROCUREMENT OF SUBSTITUTE GOODS OR SERVICES; LOSS OF USE, DATA OR PROFITS; OR BUSINESS
                                 
    29                           ; INTERRUPTION) HOWSOEVER CAUSED AND ON ANY THEORY OF LIABILITY, WHETHER IN CONTRACT, ST
                                 RICT
    30                           ; LIABILITY, OR TORT (INCLUDING NEGLIGENCE OR OTHERWISE) ARISING IN ANY WAY OUT OF THE U
                                 SE OF
    31                           ; THIS SOFTWARE, EVEN IF ADVISED OF THE POSSIBILITY OF SUCH DAMAGE.
    32                           ; 
    33                           
    34                           
    35                           ; 
    36                           ; Code-generator required, PIC18F4520 Definitions
    37                           ; 
    38  0000                     fsr0 equ 0FE9h
    39  0000                     fsr0h equ 0FEAh
    40  0000                     fsr0l equ 0FE9h
    41  0000                     fsr1 equ 0FE1h
    42  0000                     fsr1h equ 0FE2h
    43  0000                     fsr1l equ 0FE1h
    44  0000                     fsr2 equ 0FD9h
    45  0000                     fsr2h equ 0FDAh
    46  0000                     fsr2l equ 0FD9h
    47  0000                     indf0 equ 0FEFh
    48  0000                     indf1 equ 0FE7h
    49  0000                     indf2 equ 0FDFh
    50  0000                     intcon equ 0FF2h
    51  0000                     nvmcon equ 00h
    52  0000                     pcl equ 0FF9h
    53  0000                     pclath equ 0FFAh
    54  0000                     pclatu equ 0FFBh
    55  0000                     plusw0 equ 0FEBh
    56  0000                     plusw1 equ 0FE3h
    57  0000                     plusw2 equ 0FDBh
    58  0000                     postdec0 equ 0FEDh
    59  0000                     postdec1 equ 0FE5h
    60  0000                     postdec2 equ 0FDDh
    61  0000                     postinc0 equ 0FEEh
    62  0000                     postinc1 equ 0FE6h
    63  0000                     postinc2 equ 0FDEh
    64  0000                     preinc0 equ 0FECh
    65  0000                     preinc1 equ 0FE4h
    66  0000                     preinc2 equ 0FDCh
    67  0000                     prod equ 0FF3h
    68  0000                     prodh equ 0FF4h
    69  0000                     prodl equ 0FF3h
    70  0000                     status equ 0FD8h
    71  0000                     tablat equ 0FF5h
    72  0000                     tblptr equ 0FF6h
    73  0000                     tblptrh equ 0FF7h
    74  0000                     tblptrl equ 0FF6h
    75  0000                     tblptru equ 0FF8h
    76  0000                     tosl equ 0FFDh
    77  0000                     wreg equ 0FE8h
    78  0000                     
     2                           opt pagewidth 120
     3  0000                     byte0	macro	val
     4                           	(getbyte(val,0))
     5                           endm
     6  0000                     byte1	macro	val
     7                           	(getbyte(val,1))
     8                           endm
     9  0000                     byte2	macro	val
    10                           	(getbyte(val,2))
    11                           endm
    12  0000                     byte3	macro	val
    13                           	(getbyte(val,3))
    14                           endm
    15  0000                     byte4	macro	val
    16                           	(getbyte(val,4))
    17                           endm
    18  0000                     byte5	macro	val
    19                           	(getbyte(val,5))
    20                           endm
    21  0000                     byte6	macro	val
    22                           	(getbyte(val,6))
    23                           endm
    24  0000                     byte7	macro	val
    25                           	(getbyte(val,7))
    26                           endm
    27  0000                     getword	macro	val,pos
    28                           	(((val) >> (8 * pos)) and 0xffff)
    29                           endm
    30  0000                     word0	macro	val
    31                           	(getword(val,0))
    32                           endm
    33  0000                     word1	macro	val
    34                           	(getword(val,2))
    35                           endm
    36  0000                     word2	macro	val
    37                           	(getword(val,4))
    38                           endm
    39  0000                     word3	macro	val
    40                           	(getword(val,6))
    41                           endm
    42  0000                     gettword	macro	val,pos
    43                           	(((val) >> (8 * pos)) and 0xffffff)
    44                           endm
    45  0000                     tword0	macro	val
    46                           	(gettword(val,0))
    47                           endm
    48  0000                     tword1	macro	val
    49                           	(gettword(val,3))
    50                           endm
    51  0000                     tword2	macro	val
    52                           	(gettword(val,6))
    53                           endm
    54  0000                     getdword	macro	val,pos
    55                           	(((val) >> (8 * pos)) and 0xffffffff)
    56                           endm
    57  0000                     dword0	macro	val
    58                           	(getdword(val,0))
    59                           endm
    60  0000                     dword1	macro	val
    61                           	(getdword(val,4))
    62                           endm
    63  0000                     clrc   macro
    64                           	bcf	status,0
    65                           endm
    66  0000                     setc   macro
    67                           	bsf	status,0
    68                           endm
    69  0000                     clrz   macro
    70                           	bcf	status,2
    71                           endm
    72  0000                     setz   macro
    73                           	bsf	status,2
    74                           endm
    75  0000                     skipnz macro
    76                           	btfsc	status,2
    77                           endm
    78  0000                     skipz  macro
    79                           	btfss	status,2
    80                           endm
    81  0000                     skipnc macro
    82                           	btfsc	status,0
    83                           endm
    84  0000                     skipc  macro
    85                           	btfss	status,0
    86                           endm
    87  0000                     pushw macro
    88                           	movwf postinc1
    89                           endm
    90  0000                     pushf macro arg1
    91                           	movff arg1, postinc1
    92                           endm
    93  0000                     popw macro
    94                           	movf postdec1,f
    95                           	movf indf1,w
    96                           endm
    97  0000                     popf macro arg1
    98                           	movf postdec1,f
    99                           	movff indf1,arg1
   100                           endm
   101  0000                     popfc macro arg1
   102                           	movff plusw1,arg1
   103                           	decfsz fsr1,f
   104                           endm
   105  0000                     	global	__ramtop
   106                           	global	__accesstop
   107                           # 54 "C:\Program Files (x86)\Microchip\xc8\v2.00\pic\include\pic18f4520.h"
   108                           PORTA equ 0F80h ;# 
   109  0000                     # 273 "C:\Program Files (x86)\Microchip\xc8\v2.00\pic\include\pic18f4520.h"
   110                           PORTB equ 0F81h ;# 
   111  0000                     # 452 "C:\Program Files (x86)\Microchip\xc8\v2.00\pic\include\pic18f4520.h"
   112                           PORTC equ 0F82h ;# 
   113  0000                     # 634 "C:\Program Files (x86)\Microchip\xc8\v2.00\pic\include\pic18f4520.h"
   114                           PORTD equ 0F83h ;# 
   115  0000                     # 776 "C:\Program Files (x86)\Microchip\xc8\v2.00\pic\include\pic18f4520.h"
   116                           PORTE equ 0F84h ;# 
   117  0000                     # 979 "C:\Program Files (x86)\Microchip\xc8\v2.00\pic\include\pic18f4520.h"
   118                           LATA equ 0F89h ;# 
   119  0000                     # 1091 "C:\Program Files (x86)\Microchip\xc8\v2.00\pic\include\pic18f4520.h"
   120                           LATB equ 0F8Ah ;# 
   121  0000                     # 1203 "C:\Program Files (x86)\Microchip\xc8\v2.00\pic\include\pic18f4520.h"
   122                           LATC equ 0F8Bh ;# 
   123  0000                     # 1315 "C:\Program Files (x86)\Microchip\xc8\v2.00\pic\include\pic18f4520.h"
   124                           LATD equ 0F8Ch ;# 
   125  0000                     # 1427 "C:\Program Files (x86)\Microchip\xc8\v2.00\pic\include\pic18f4520.h"
   126                           LATE equ 0F8Dh ;# 
   127  0000                     # 1479 "C:\Program Files (x86)\Microchip\xc8\v2.00\pic\include\pic18f4520.h"
   128                           TRISA equ 0F92h ;# 
   129  0000                     # 1484 "C:\Program Files (x86)\Microchip\xc8\v2.00\pic\include\pic18f4520.h"
   130                           DDRA equ 0F92h ;# 
   131  0000                     # 1701 "C:\Program Files (x86)\Microchip\xc8\v2.00\pic\include\pic18f4520.h"
   132                           TRISB equ 0F93h ;# 
   133  0000                     # 1706 "C:\Program Files (x86)\Microchip\xc8\v2.00\pic\include\pic18f4520.h"
   134                           DDRB equ 0F93h ;# 
   135  0000                     # 1923 "C:\Program Files (x86)\Microchip\xc8\v2.00\pic\include\pic18f4520.h"
   136                           TRISC equ 0F94h ;# 
   137  0000                     # 1928 "C:\Program Files (x86)\Microchip\xc8\v2.00\pic\include\pic18f4520.h"
   138                           DDRC equ 0F94h ;# 
   139  0000                     # 2145 "C:\Program Files (x86)\Microchip\xc8\v2.00\pic\include\pic18f4520.h"
   140                           TRISD equ 0F95h ;# 
   141  0000                     # 2150 "C:\Program Files (x86)\Microchip\xc8\v2.00\pic\include\pic18f4520.h"
   142                           DDRD equ 0F95h ;# 
   143  0000                     # 2367 "C:\Program Files (x86)\Microchip\xc8\v2.00\pic\include\pic18f4520.h"
   144                           TRISE equ 0F96h ;# 
   145  0000                     # 2372 "C:\Program Files (x86)\Microchip\xc8\v2.00\pic\include\pic18f4520.h"
   146                           DDRE equ 0F96h ;# 
   147  0000                     # 2531 "C:\Program Files (x86)\Microchip\xc8\v2.00\pic\include\pic18f4520.h"
   148                           OSCTUNE equ 0F9Bh ;# 
   149  0000                     # 2596 "C:\Program Files (x86)\Microchip\xc8\v2.00\pic\include\pic18f4520.h"
   150                           PIE1 equ 0F9Dh ;# 
   151  0000                     # 2673 "C:\Program Files (x86)\Microchip\xc8\v2.00\pic\include\pic18f4520.h"
   152                           PIR1 equ 0F9Eh ;# 
   153  0000                     # 2750 "C:\Program Files (x86)\Microchip\xc8\v2.00\pic\include\pic18f4520.h"
   154                           IPR1 equ 0F9Fh ;# 
   155  0000                     # 2827 "C:\Program Files (x86)\Microchip\xc8\v2.00\pic\include\pic18f4520.h"
   156                           PIE2 equ 0FA0h ;# 
   157  0000                     # 2893 "C:\Program Files (x86)\Microchip\xc8\v2.00\pic\include\pic18f4520.h"
   158                           PIR2 equ 0FA1h ;# 
   159  0000                     # 2959 "C:\Program Files (x86)\Microchip\xc8\v2.00\pic\include\pic18f4520.h"
   160                           IPR2 equ 0FA2h ;# 
   161  0000                     # 3025 "C:\Program Files (x86)\Microchip\xc8\v2.00\pic\include\pic18f4520.h"
   162                           EECON1 equ 0FA6h ;# 
   163  0000                     # 3091 "C:\Program Files (x86)\Microchip\xc8\v2.00\pic\include\pic18f4520.h"
   164                           EECON2 equ 0FA7h ;# 
   165  0000                     # 3098 "C:\Program Files (x86)\Microchip\xc8\v2.00\pic\include\pic18f4520.h"
   166                           EEDATA equ 0FA8h ;# 
   167  0000                     # 3105 "C:\Program Files (x86)\Microchip\xc8\v2.00\pic\include\pic18f4520.h"
   168                           EEADR equ 0FA9h ;# 
   169  0000                     # 3112 "C:\Program Files (x86)\Microchip\xc8\v2.00\pic\include\pic18f4520.h"
   170                           RCSTA equ 0FABh ;# 
   171  0000                     # 3117 "C:\Program Files (x86)\Microchip\xc8\v2.00\pic\include\pic18f4520.h"
   172                           RCSTA1 equ 0FABh ;# 
   173  0000                     # 3322 "C:\Program Files (x86)\Microchip\xc8\v2.00\pic\include\pic18f4520.h"
   174                           TXSTA equ 0FACh ;# 
   175  0000                     # 3327 "C:\Program Files (x86)\Microchip\xc8\v2.00\pic\include\pic18f4520.h"
   176                           TXSTA1 equ 0FACh ;# 
   177  0000                     # 3578 "C:\Program Files (x86)\Microchip\xc8\v2.00\pic\include\pic18f4520.h"
   178                           TXREG equ 0FADh ;# 
   179  0000                     # 3583 "C:\Program Files (x86)\Microchip\xc8\v2.00\pic\include\pic18f4520.h"
   180                           TXREG1 equ 0FADh ;# 
   181  0000                     # 3590 "C:\Program Files (x86)\Microchip\xc8\v2.00\pic\include\pic18f4520.h"
   182                           RCREG equ 0FAEh ;# 
   183  0000                     # 3595 "C:\Program Files (x86)\Microchip\xc8\v2.00\pic\include\pic18f4520.h"
   184                           RCREG1 equ 0FAEh ;# 
   185  0000                     # 3602 "C:\Program Files (x86)\Microchip\xc8\v2.00\pic\include\pic18f4520.h"
   186                           SPBRG equ 0FAFh ;# 
   187  0000                     # 3607 "C:\Program Files (x86)\Microchip\xc8\v2.00\pic\include\pic18f4520.h"
   188                           SPBRG1 equ 0FAFh ;# 
   189  0000                     # 3614 "C:\Program Files (x86)\Microchip\xc8\v2.00\pic\include\pic18f4520.h"
   190                           SPBRGH equ 0FB0h ;# 
   191  0000                     # 3621 "C:\Program Files (x86)\Microchip\xc8\v2.00\pic\include\pic18f4520.h"
   192                           T3CON equ 0FB1h ;# 
   193  0000                     # 3733 "C:\Program Files (x86)\Microchip\xc8\v2.00\pic\include\pic18f4520.h"
   194                           TMR3 equ 0FB2h ;# 
   195  0000                     # 3740 "C:\Program Files (x86)\Microchip\xc8\v2.00\pic\include\pic18f4520.h"
   196                           TMR3L equ 0FB2h ;# 
   197  0000                     # 3747 "C:\Program Files (x86)\Microchip\xc8\v2.00\pic\include\pic18f4520.h"
   198                           TMR3H equ 0FB3h ;# 
   199  0000                     # 3754 "C:\Program Files (x86)\Microchip\xc8\v2.00\pic\include\pic18f4520.h"
   200                           CMCON equ 0FB4h ;# 
   201  0000                     # 3844 "C:\Program Files (x86)\Microchip\xc8\v2.00\pic\include\pic18f4520.h"
   202                           CVRCON equ 0FB5h ;# 
   203  0000                     # 3923 "C:\Program Files (x86)\Microchip\xc8\v2.00\pic\include\pic18f4520.h"
   204                           ECCP1AS equ 0FB6h ;# 
   205  0000                     # 3928 "C:\Program Files (x86)\Microchip\xc8\v2.00\pic\include\pic18f4520.h"
   206                           ECCPAS equ 0FB6h ;# 
   207  0000                     # 4085 "C:\Program Files (x86)\Microchip\xc8\v2.00\pic\include\pic18f4520.h"
   208                           PWM1CON equ 0FB7h ;# 
   209  0000                     # 4090 "C:\Program Files (x86)\Microchip\xc8\v2.00\pic\include\pic18f4520.h"
   210                           ECCP1DEL equ 0FB7h ;# 
   211  0000                     # 4223 "C:\Program Files (x86)\Microchip\xc8\v2.00\pic\include\pic18f4520.h"
   212                           BAUDCON equ 0FB8h ;# 
   213  0000                     # 4228 "C:\Program Files (x86)\Microchip\xc8\v2.00\pic\include\pic18f4520.h"
   214                           BAUDCTL equ 0FB8h ;# 
   215  0000                     # 4403 "C:\Program Files (x86)\Microchip\xc8\v2.00\pic\include\pic18f4520.h"
   216                           CCP2CON equ 0FBAh ;# 
   217  0000                     # 4482 "C:\Program Files (x86)\Microchip\xc8\v2.00\pic\include\pic18f4520.h"
   218                           CCPR2 equ 0FBBh ;# 
   219  0000                     # 4489 "C:\Program Files (x86)\Microchip\xc8\v2.00\pic\include\pic18f4520.h"
   220                           CCPR2L equ 0FBBh ;# 
   221  0000                     # 4496 "C:\Program Files (x86)\Microchip\xc8\v2.00\pic\include\pic18f4520.h"
   222                           CCPR2H equ 0FBCh ;# 
   223  0000                     # 4503 "C:\Program Files (x86)\Microchip\xc8\v2.00\pic\include\pic18f4520.h"
   224                           CCP1CON equ 0FBDh ;# 
   225  0000                     # 4600 "C:\Program Files (x86)\Microchip\xc8\v2.00\pic\include\pic18f4520.h"
   226                           CCPR1 equ 0FBEh ;# 
   227  0000                     # 4607 "C:\Program Files (x86)\Microchip\xc8\v2.00\pic\include\pic18f4520.h"
   228                           CCPR1L equ 0FBEh ;# 
   229  0000                     # 4614 "C:\Program Files (x86)\Microchip\xc8\v2.00\pic\include\pic18f4520.h"
   230                           CCPR1H equ 0FBFh ;# 
   231  0000                     # 4621 "C:\Program Files (x86)\Microchip\xc8\v2.00\pic\include\pic18f4520.h"
   232                           ADCON2 equ 0FC0h ;# 
   233  0000                     # 4692 "C:\Program Files (x86)\Microchip\xc8\v2.00\pic\include\pic18f4520.h"
   234                           ADCON1 equ 0FC1h ;# 
   235  0000                     # 4777 "C:\Program Files (x86)\Microchip\xc8\v2.00\pic\include\pic18f4520.h"
   236                           ADCON0 equ 0FC2h ;# 
   237  0000                     # 4896 "C:\Program Files (x86)\Microchip\xc8\v2.00\pic\include\pic18f4520.h"
   238                           ADRES equ 0FC3h ;# 
   239  0000                     # 4903 "C:\Program Files (x86)\Microchip\xc8\v2.00\pic\include\pic18f4520.h"
   240                           ADRESL equ 0FC3h ;# 
   241  0000                     # 4910 "C:\Program Files (x86)\Microchip\xc8\v2.00\pic\include\pic18f4520.h"
   242                           ADRESH equ 0FC4h ;# 
   243  0000                     # 4917 "C:\Program Files (x86)\Microchip\xc8\v2.00\pic\include\pic18f4520.h"
   244                           SSPCON2 equ 0FC5h ;# 
   245  0000                     # 5012 "C:\Program Files (x86)\Microchip\xc8\v2.00\pic\include\pic18f4520.h"
   246                           SSPCON1 equ 0FC6h ;# 
   247  0000                     # 5082 "C:\Program Files (x86)\Microchip\xc8\v2.00\pic\include\pic18f4520.h"
   248                           SSPSTAT equ 0FC7h ;# 
   249  0000                     # 5303 "C:\Program Files (x86)\Microchip\xc8\v2.00\pic\include\pic18f4520.h"
   250                           SSPADD equ 0FC8h ;# 
   251  0000                     # 5310 "C:\Program Files (x86)\Microchip\xc8\v2.00\pic\include\pic18f4520.h"
   252                           SSPBUF equ 0FC9h ;# 
   253  0000                     # 5317 "C:\Program Files (x86)\Microchip\xc8\v2.00\pic\include\pic18f4520.h"
   254                           T2CON equ 0FCAh ;# 
   255  0000                     # 5415 "C:\Program Files (x86)\Microchip\xc8\v2.00\pic\include\pic18f4520.h"
   256                           PR2 equ 0FCBh ;# 
   257  0000                     # 5420 "C:\Program Files (x86)\Microchip\xc8\v2.00\pic\include\pic18f4520.h"
   258                           MEMCON equ 0FCBh ;# 
   259  0000                     # 5525 "C:\Program Files (x86)\Microchip\xc8\v2.00\pic\include\pic18f4520.h"
   260                           TMR2 equ 0FCCh ;# 
   261  0000                     # 5532 "C:\Program Files (x86)\Microchip\xc8\v2.00\pic\include\pic18f4520.h"
   262                           T1CON equ 0FCDh ;# 
   263  0000                     # 5635 "C:\Program Files (x86)\Microchip\xc8\v2.00\pic\include\pic18f4520.h"
   264                           TMR1 equ 0FCEh ;# 
   265  0000                     # 5642 "C:\Program Files (x86)\Microchip\xc8\v2.00\pic\include\pic18f4520.h"
   266                           TMR1L equ 0FCEh ;# 
   267  0000                     # 5649 "C:\Program Files (x86)\Microchip\xc8\v2.00\pic\include\pic18f4520.h"
   268                           TMR1H equ 0FCFh ;# 
   269  0000                     # 5656 "C:\Program Files (x86)\Microchip\xc8\v2.00\pic\include\pic18f4520.h"
   270                           RCON equ 0FD0h ;# 
   271  0000                     # 5789 "C:\Program Files (x86)\Microchip\xc8\v2.00\pic\include\pic18f4520.h"
   272                           WDTCON equ 0FD1h ;# 
   273  0000                     # 5817 "C:\Program Files (x86)\Microchip\xc8\v2.00\pic\include\pic18f4520.h"
   274                           HLVDCON equ 0FD2h ;# 
   275  0000                     # 5822 "C:\Program Files (x86)\Microchip\xc8\v2.00\pic\include\pic18f4520.h"
   276                           LVDCON equ 0FD2h ;# 
   277  0000                     # 6087 "C:\Program Files (x86)\Microchip\xc8\v2.00\pic\include\pic18f4520.h"
   278                           OSCCON equ 0FD3h ;# 
   279  0000                     # 6170 "C:\Program Files (x86)\Microchip\xc8\v2.00\pic\include\pic18f4520.h"
   280                           T0CON equ 0FD5h ;# 
   281  0000                     # 6253 "C:\Program Files (x86)\Microchip\xc8\v2.00\pic\include\pic18f4520.h"
   282                           TMR0 equ 0FD6h ;# 
   283  0000                     # 6260 "C:\Program Files (x86)\Microchip\xc8\v2.00\pic\include\pic18f4520.h"
   284                           TMR0L equ 0FD6h ;# 
   285  0000                     # 6267 "C:\Program Files (x86)\Microchip\xc8\v2.00\pic\include\pic18f4520.h"
   286                           TMR0H equ 0FD7h ;# 
   287  0000                     # 6274 "C:\Program Files (x86)\Microchip\xc8\v2.00\pic\include\pic18f4520.h"
   288                           STATUS equ 0FD8h ;# 
   289  0000                     # 6345 "C:\Program Files (x86)\Microchip\xc8\v2.00\pic\include\pic18f4520.h"
   290                           FSR2 equ 0FD9h ;# 
   291  0000                     # 6352 "C:\Program Files (x86)\Microchip\xc8\v2.00\pic\include\pic18f4520.h"
   292                           FSR2L equ 0FD9h ;# 
   293  0000                     # 6359 "C:\Program Files (x86)\Microchip\xc8\v2.00\pic\include\pic18f4520.h"
   294                           FSR2H equ 0FDAh ;# 
   295  0000                     # 6366 "C:\Program Files (x86)\Microchip\xc8\v2.00\pic\include\pic18f4520.h"
   296                           PLUSW2 equ 0FDBh ;# 
   297  0000                     # 6373 "C:\Program Files (x86)\Microchip\xc8\v2.00\pic\include\pic18f4520.h"
   298                           PREINC2 equ 0FDCh ;# 
   299  0000                     # 6380 "C:\Program Files (x86)\Microchip\xc8\v2.00\pic\include\pic18f4520.h"
   300                           POSTDEC2 equ 0FDDh ;# 
   301  0000                     # 6387 "C:\Program Files (x86)\Microchip\xc8\v2.00\pic\include\pic18f4520.h"
   302                           POSTINC2 equ 0FDEh ;# 
   303  0000                     # 6394 "C:\Program Files (x86)\Microchip\xc8\v2.00\pic\include\pic18f4520.h"
   304                           INDF2 equ 0FDFh ;# 
   305  0000                     # 6401 "C:\Program Files (x86)\Microchip\xc8\v2.00\pic\include\pic18f4520.h"
   306                           BSR equ 0FE0h ;# 
   307  0000                     # 6408 "C:\Program Files (x86)\Microchip\xc8\v2.00\pic\include\pic18f4520.h"
   308                           FSR1 equ 0FE1h ;# 
   309  0000                     # 6415 "C:\Program Files (x86)\Microchip\xc8\v2.00\pic\include\pic18f4520.h"
   310                           FSR1L equ 0FE1h ;# 
   311  0000                     # 6422 "C:\Program Files (x86)\Microchip\xc8\v2.00\pic\include\pic18f4520.h"
   312                           FSR1H equ 0FE2h ;# 
   313  0000                     # 6429 "C:\Program Files (x86)\Microchip\xc8\v2.00\pic\include\pic18f4520.h"
   314                           PLUSW1 equ 0FE3h ;# 
   315  0000                     # 6436 "C:\Program Files (x86)\Microchip\xc8\v2.00\pic\include\pic18f4520.h"
   316                           PREINC1 equ 0FE4h ;# 
   317  0000                     # 6443 "C:\Program Files (x86)\Microchip\xc8\v2.00\pic\include\pic18f4520.h"
   318                           POSTDEC1 equ 0FE5h ;# 
   319  0000                     # 6450 "C:\Program Files (x86)\Microchip\xc8\v2.00\pic\include\pic18f4520.h"
   320                           POSTINC1 equ 0FE6h ;# 
   321  0000                     # 6457 "C:\Program Files (x86)\Microchip\xc8\v2.00\pic\include\pic18f4520.h"
   322                           INDF1 equ 0FE7h ;# 
   323  0000                     # 6464 "C:\Program Files (x86)\Microchip\xc8\v2.00\pic\include\pic18f4520.h"
   324                           WREG equ 0FE8h ;# 
   325  0000                     # 6476 "C:\Program Files (x86)\Microchip\xc8\v2.00\pic\include\pic18f4520.h"
   326                           FSR0 equ 0FE9h ;# 
   327  0000                     # 6483 "C:\Program Files (x86)\Microchip\xc8\v2.00\pic\include\pic18f4520.h"
   328                           FSR0L equ 0FE9h ;# 
   329  0000                     # 6490 "C:\Program Files (x86)\Microchip\xc8\v2.00\pic\include\pic18f4520.h"
   330                           FSR0H equ 0FEAh ;# 
   331  0000                     # 6497 "C:\Program Files (x86)\Microchip\xc8\v2.00\pic\include\pic18f4520.h"
   332                           PLUSW0 equ 0FEBh ;# 
   333  0000                     # 6504 "C:\Program Files (x86)\Microchip\xc8\v2.00\pic\include\pic18f4520.h"
   334                           PREINC0 equ 0FECh ;# 
   335  0000                     # 6511 "C:\Program Files (x86)\Microchip\xc8\v2.00\pic\include\pic18f4520.h"
   336                           POSTDEC0 equ 0FEDh ;# 
   337  0000                     # 6518 "C:\Program Files (x86)\Microchip\xc8\v2.00\pic\include\pic18f4520.h"
   338                           POSTINC0 equ 0FEEh ;# 
   339  0000                     # 6525 "C:\Program Files (x86)\Microchip\xc8\v2.00\pic\include\pic18f4520.h"
   340                           INDF0 equ 0FEFh ;# 
   341  0000                     # 6532 "C:\Program Files (x86)\Microchip\xc8\v2.00\pic\include\pic18f4520.h"
   342                           INTCON3 equ 0FF0h ;# 
   343  0000                     # 6624 "C:\Program Files (x86)\Microchip\xc8\v2.00\pic\include\pic18f4520.h"
   344                           INTCON2 equ 0FF1h ;# 
   345  0000                     # 6694 "C:\Program Files (x86)\Microchip\xc8\v2.00\pic\include\pic18f4520.h"
   346                           INTCON equ 0FF2h ;# 
   347  0000                     # 6811 "C:\Program Files (x86)\Microchip\xc8\v2.00\pic\include\pic18f4520.h"
   348                           PROD equ 0FF3h ;# 
   349  0000                     # 6818 "C:\Program Files (x86)\Microchip\xc8\v2.00\pic\include\pic18f4520.h"
   350                           PRODL equ 0FF3h ;# 
   351  0000                     # 6825 "C:\Program Files (x86)\Microchip\xc8\v2.00\pic\include\pic18f4520.h"
   352                           PRODH equ 0FF4h ;# 
   353  0000                     # 6832 "C:\Program Files (x86)\Microchip\xc8\v2.00\pic\include\pic18f4520.h"
   354                           TABLAT equ 0FF5h ;# 
   355  0000                     # 6841 "C:\Program Files (x86)\Microchip\xc8\v2.00\pic\include\pic18f4520.h"
   356                           TBLPTR equ 0FF6h ;# 
   357  0000                     # 6848 "C:\Program Files (x86)\Microchip\xc8\v2.00\pic\include\pic18f4520.h"
   358                           TBLPTRL equ 0FF6h ;# 
   359  0000                     # 6855 "C:\Program Files (x86)\Microchip\xc8\v2.00\pic\include\pic18f4520.h"
   360                           TBLPTRH equ 0FF7h ;# 
   361  0000                     # 6862 "C:\Program Files (x86)\Microchip\xc8\v2.00\pic\include\pic18f4520.h"
   362                           TBLPTRU equ 0FF8h ;# 
   363  0000                     # 6871 "C:\Program Files (x86)\Microchip\xc8\v2.00\pic\include\pic18f4520.h"
   364                           PCLAT equ 0FF9h ;# 
   365  0000                     # 6878 "C:\Program Files (x86)\Microchip\xc8\v2.00\pic\include\pic18f4520.h"
   366                           PC equ 0FF9h ;# 
   367  0000                     # 6885 "C:\Program Files (x86)\Microchip\xc8\v2.00\pic\include\pic18f4520.h"
   368                           PCL equ 0FF9h ;# 
   369  0000                     # 6892 "C:\Program Files (x86)\Microchip\xc8\v2.00\pic\include\pic18f4520.h"
   370                           PCLATH equ 0FFAh ;# 
   371  0000                     # 6899 "C:\Program Files (x86)\Microchip\xc8\v2.00\pic\include\pic18f4520.h"
   372                           PCLATU equ 0FFBh ;# 
   373  0000                     # 6906 "C:\Program Files (x86)\Microchip\xc8\v2.00\pic\include\pic18f4520.h"
   374                           STKPTR equ 0FFCh ;# 
   375  0000                     # 6980 "C:\Program Files (x86)\Microchip\xc8\v2.00\pic\include\pic18f4520.h"
   376                           TOS equ 0FFDh ;# 
   377  0000                     # 6987 "C:\Program Files (x86)\Microchip\xc8\v2.00\pic\include\pic18f4520.h"
   378                           TOSL equ 0FFDh ;# 
   379  0000                     # 6994 "C:\Program Files (x86)\Microchip\xc8\v2.00\pic\include\pic18f4520.h"
   380                           TOSH equ 0FFEh ;# 
   381  0000                     # 7001 "C:\Program Files (x86)\Microchip\xc8\v2.00\pic\include\pic18f4520.h"
   382                           TOSU equ 0FFFh ;# 
   383  0000                     	FNCALL	_main,_Do
   384                           	FNCALL	_main,_Fa
   385                           	FNCALL	_main,_Mi
   386                           	FNCALL	_main,_PWM1_Duty
   387                           	FNCALL	_main,_PWM1_Start
   388                           	FNCALL	_main,_Re
   389                           	FNCALL	_main,_So
   390                           	FNCALL	_main,_small_bee
   391                           	FNCALL	_small_bee,_Do
   392                           	FNCALL	_small_bee,_Fa
   393                           	FNCALL	_small_bee,_Mi
   394                           	FNCALL	_small_bee,_Quiet
   395                           	FNCALL	_small_bee,_Re
   396                           	FNCALL	_small_bee,_So
   397                           	FNCALL	_small_bee,_delay
   398                           	FNCALL	_So,_PWM1_Duty
   399                           	FNCALL	_So,_PWM1_Init
   400                           	FNCALL	_Re,_PWM1_Duty
   401                           	FNCALL	_Re,_PWM1_Init
   402                           	FNCALL	_Quiet,_PWM1_Duty
   403                           	FNCALL	_Mi,_PWM1_Duty
   404                           	FNCALL	_Mi,_PWM1_Init
   405                           	FNCALL	_Fa,_PWM1_Duty
   406                           	FNCALL	_Fa,_PWM1_Init
   407                           	FNCALL	_Do,_PWM1_Duty
   408                           	FNCALL	_Do,_PWM1_Init
   409                           	FNROOT	_main
   410                           	global	_flag
   411                           	global	_LATAbits
   412                           _LATAbits	set	0xF89
   413  0000                     	global	_LATA
   414                           _LATA	set	0xF89
   415  0000                     	global	_TRISDbits
   416                           _TRISDbits	set	0xF95
   417  0000                     	global	_TRISCbits
   418                           _TRISCbits	set	0xF94
   419  0000                     	global	_TRISAbits
   420                           _TRISAbits	set	0xF92
   421  0000                     	global	_TRISA
   422                           _TRISA	set	0xF92
   423  0000                     	global	_RD0
   424                           _RD0	set	0x7C18
   425  0000                     	global	_RC3
   426                           _RC3	set	0x7C13
   427  0000                     	global	_RD3
   428                           _RD3	set	0x7C1B
   429  0000                     	global	_RD2
   430                           _RD2	set	0x7C1A
   431  0000                     	global	_RD1
   432                           _RD1	set	0x7C19
   433  0000                     	global	_PWM1CONbits
   434                           _PWM1CONbits	set	0xFB7
   435  0000                     	global	_OSCCONbits
   436                           _OSCCONbits	set	0xFD3
   437  0000                     	global	_T2CONbits
   438                           _T2CONbits	set	0xFCA
   439  0000                     	global	_CCPR1L
   440                           _CCPR1L	set	0xFBE
   441  0000                     	global	_CCP1CONbits
   442                           _CCP1CONbits	set	0xFBD
   443  0000                     	global	_PR2
   444                           _PR2	set	0xFCB
   445  0000                     ; #config settings
   446                           global __CFG_OSC$INTIO67
   447                           __CFG_OSC$INTIO67 equ 0x0
   448  0000                     global __CFG_PWRT$OFF
   449                           __CFG_PWRT$OFF equ 0x0
   450  0000                     global __CFG_BOREN$ON
   451                           __CFG_BOREN$ON equ 0x0
   452  0000                     global __CFG_WDT$OFF
   453                           __CFG_WDT$OFF equ 0x0
   454  0000                     global __CFG_LVP$OFF
   455                           __CFG_LVP$OFF equ 0x0
   456  0000                     global __CFG_CPD$OFF
   457                           __CFG_CPD$OFF equ 0x0
   458  0000                     	file	"C:\Users\wayne\AppData\Local\Temp\s9k4."
   459                           	line	#
   460                           psect	cinit,class=CODE,delta=1,reloc=2
   461                           global __pcinit
   462                           __pcinit:
   463  0068EA                     global start_initialization
   464                           start_initialization:
   465  0068EA                     
   466                           global __initialization
   467                           __initialization:
   468  0068EA                     psect	bssCOMRAM,class=COMRAM,space=1,noexec
   469                           global __pbssCOMRAM
   470                           __pbssCOMRAM:
   471  00000B                     	global	_flag
   472                           _flag:
   473  00000B                            ds      2
   474  00000B                     	file	"C:\Users\wayne\AppData\Local\Temp\s9k4."
   475                           	line	#
   476                           psect	cinit
   477                           ; Clear objects allocated to COMRAM (2 bytes)
   478                           	global __pbssCOMRAM
   479                           clrf	(__pbssCOMRAM+1)&0xffh,c
   480  0068EA  6A0C               clrf	(__pbssCOMRAM+0)&0xffh,c
   481  0068EC  6A0B               psect cinit,class=CODE,delta=1
   482                           global end_of_initialization,__end_of__initialization
   483                           
   484                           ;End of C runtime variable initialization code
   485                           
   486                           end_of_initialization:
   487  0068EE                     __end_of__initialization:
   488  0068EE                     movlb 0
   489  0068EE  0100               goto _main	;jump to C main() function
   490  0068F0  EF4C  F035         psect	cstackCOMRAM,class=COMRAM,space=1,noexec
   491                           global __pcstackCOMRAM
   492                           __pcstackCOMRAM:
   493  000001                     ?_PWM1_Init:	; 1 bytes @ 0x0
   494  000001                     ?_PWM1_Duty:	; 1 bytes @ 0x0
   495  000001                     ?_PWM1_Start:	; 1 bytes @ 0x0
   496  000001                     ??_PWM1_Start:	; 1 bytes @ 0x0
   497  000001                     ?_Do:	; 1 bytes @ 0x0
   498  000001                     ?_Re:	; 1 bytes @ 0x0
   499  000001                     ?_Mi:	; 1 bytes @ 0x0
   500  000001                     ?_Fa:	; 1 bytes @ 0x0
   501  000001                     ?_So:	; 1 bytes @ 0x0
   502  000001                     ?_Quiet:	; 1 bytes @ 0x0
   503  000001                     ?_delay:	; 1 bytes @ 0x0
   504  000001                     ??_delay:	; 1 bytes @ 0x0
   505  000001                     ?_small_bee:	; 1 bytes @ 0x0
   506  000001                     ?_main:	; 1 bytes @ 0x0
   507  000001                     	global	PWM1_Duty@duty
   508                           PWM1_Duty@duty:	; 2 bytes @ 0x0
   509  000001                     	global	delay@i
   510                           delay@i:	; 2 bytes @ 0x0
   511  000001                     	global	PWM1_Init@setDuty
   512                           PWM1_Init@setDuty:	; 4 bytes @ 0x0
   513  000001                     	ds   2
   514  000001                     ??_PWM1_Duty:	; 1 bytes @ 0x2
   515  000003                     	ds   2
   516  000003                     ??_PWM1_Init:	; 1 bytes @ 0x4
   517  000005                     ??_Do:	; 1 bytes @ 0x4
   518  000005                     ??_Re:	; 1 bytes @ 0x4
   519  000005                     ??_Mi:	; 1 bytes @ 0x4
   520  000005                     ??_Fa:	; 1 bytes @ 0x4
   521  000005                     ??_So:	; 1 bytes @ 0x4
   522  000005                     ??_Quiet:	; 1 bytes @ 0x4
   523  000005                     ??_small_bee:	; 1 bytes @ 0x4
   524  000005                     ??_main:	; 1 bytes @ 0x4
   525  000005                     	global	main@i
   526                           main@i:	; 2 bytes @ 0x4
   527  000005                     	ds   2
   528  000005                     	global	main@j
   529                           main@j:	; 2 bytes @ 0x6
   530  000007                     	ds   2
   531  000007                     	global	main@flag
   532                           main@flag:	; 2 bytes @ 0x8
   533  000009                     	ds   2
   534  000009                     ;!
   535                           ;!Data Sizes:
   536                           ;!    Strings     0
   537                           ;!    Constant    0
   538                           ;!    Data        0
   539                           ;!    BSS         2
   540                           ;!    Persistent  0
   541                           ;!    Stack       0
   542                           ;!
   543                           ;!Auto Spaces:
   544                           ;!    Space          Size  Autos    Used
   545                           ;!    COMRAM          127     10      12
   546                           ;!    BANK0           128      0       0
   547                           ;!    BANK1           256      0       0
   548                           ;!    BANK2           256      0       0
   549                           ;!    BANK3           256      0       0
   550                           ;!    BANK4           256      0       0
   551                           ;!    BANK5           244      0       0
   552                           
   553                           ;!
   554                           ;!Pointer List with Targets:
   555                           ;!
   556                           ;!    None.
   557                           
   558                           
   559                           ;!
   560                           ;!Critical Paths under _main in COMRAM
   561                           ;!
   562                           ;!    _main->_PWM1_Duty
   563                           ;!    _So->_PWM1_Duty
   564                           ;!    _So->_PWM1_Init
   565                           ;!    _Re->_PWM1_Duty
   566                           ;!    _Re->_PWM1_Init
   567                           ;!    _Quiet->_PWM1_Duty
   568                           ;!    _Mi->_PWM1_Duty
   569                           ;!    _Mi->_PWM1_Init
   570                           ;!    _Fa->_PWM1_Duty
   571                           ;!    _Fa->_PWM1_Init
   572                           ;!    _Do->_PWM1_Duty
   573                           ;!    _Do->_PWM1_Init
   574                           ;!
   575                           ;!Critical Paths under _main in BANK0
   576                           ;!
   577                           ;!    None.
   578                           ;!
   579                           ;!Critical Paths under _main in BANK1
   580                           ;!
   581                           ;!    None.
   582                           ;!
   583                           ;!Critical Paths under _main in BANK2
   584                           ;!
   585                           ;!    None.
   586                           ;!
   587                           ;!Critical Paths under _main in BANK3
   588                           ;!
   589                           ;!    None.
   590                           ;!
   591                           ;!Critical Paths under _main in BANK4
   592                           ;!
   593                           ;!    None.
   594                           ;!
   595                           ;!Critical Paths under _main in BANK5
   596                           ;!
   597                           ;!    None.
   598                           
   599 ;;
   600 ;;Main: autosize = 0, tempsize = 0, incstack = 0, save=0
   601 ;;
   602                           
   603                           ;!
   604                           ;!Call Graph Tables:
   605                           ;!
   606                           ;! ---------------------------------------------------------------------------------
   607                           ;! (Depth) Function   	        Calls       Base Space   Used Autos Params    Refs
   608                           ;! ---------------------------------------------------------------------------------
   609                           ;! (0) _main                                                 6     6      0   10965
   610                           ;!                                              4 COMRAM     6     6      0
   611                           ;!                                 _Do
   612                           ;!                                 _Fa
   613                           ;!                                 _Mi
   614                           ;!                          _PWM1_Duty
   615                           ;!                         _PWM1_Start
   616                           ;!                                 _Re
   617                           ;!                                 _So
   618                           ;!                          _small_bee
   619                           ;! ---------------------------------------------------------------------------------
   620                           ;! (1) _small_bee                                            0     0      0    5496
   621                           ;!                                 _Do
   622                           ;!                                 _Fa
   623                           ;!                                 _Mi
   624                           ;!                              _Quiet
   625                           ;!                                 _Re
   626                           ;!                                 _So
   627                           ;!                              _delay
   628                           ;! ---------------------------------------------------------------------------------
   629                           ;! (2) _delay                                                2     2      0      30
   630                           ;!                                              0 COMRAM     2     2      0
   631                           ;! ---------------------------------------------------------------------------------
   632                           ;! (2) _So                                                   0     0      0     978
   633                           ;!                          _PWM1_Duty
   634                           ;!                          _PWM1_Init
   635                           ;! ---------------------------------------------------------------------------------
   636                           ;! (2) _Re                                                   0     0      0     978
   637                           ;!                          _PWM1_Duty
   638                           ;!                          _PWM1_Init
   639                           ;! ---------------------------------------------------------------------------------
   640                           ;! (2) _Quiet                                                0     0      0     576
   641                           ;!                          _PWM1_Duty
   642                           ;! ---------------------------------------------------------------------------------
   643                           ;! (2) _Mi                                                   0     0      0     978
   644                           ;!                          _PWM1_Duty
   645                           ;!                          _PWM1_Init
   646                           ;! ---------------------------------------------------------------------------------
   647                           ;! (2) _Fa                                                   0     0      0     978
   648                           ;!                          _PWM1_Duty
   649                           ;!                          _PWM1_Init
   650                           ;! ---------------------------------------------------------------------------------
   651                           ;! (2) _Do                                                   0     0      0     978
   652                           ;!                          _PWM1_Duty
   653                           ;!                          _PWM1_Init
   654                           ;! ---------------------------------------------------------------------------------
   655                           ;! (3) _PWM1_Init                                            4     0      4     402
   656                           ;!                                              0 COMRAM     4     0      4
   657                           ;! ---------------------------------------------------------------------------------
   658                           ;! (3) _PWM1_Duty                                            4     2      2     576
   659                           ;!                                              0 COMRAM     4     2      2
   660                           ;! ---------------------------------------------------------------------------------
   661                           ;! (1) _PWM1_Start                                           0     0      0       0
   662                           ;! ---------------------------------------------------------------------------------
   663                           ;! Estimated maximum stack depth 3
   664                           ;! ---------------------------------------------------------------------------------
   665                           ;!
   666                           ;! Call Graph Graphs:
   667                           ;!
   668                           ;! _main (ROOT)
   669                           ;!   _Do
   670                           ;!     _PWM1_Duty
   671                           ;!     _PWM1_Init
   672                           ;!   _Fa
   673                           ;!     _PWM1_Duty
   674                           ;!     _PWM1_Init
   675                           ;!   _Mi
   676                           ;!     _PWM1_Duty
   677                           ;!     _PWM1_Init
   678                           ;!   _PWM1_Duty
   679                           ;!   _PWM1_Start
   680                           ;!   _Re
   681                           ;!     _PWM1_Duty
   682                           ;!     _PWM1_Init
   683                           ;!   _So
   684                           ;!     _PWM1_Duty
   685                           ;!     _PWM1_Init
   686                           ;!   _small_bee
   687                           ;!     _Do
   688                           ;!       _PWM1_Duty
   689                           ;!       _PWM1_Init
   690                           ;!     _Fa
   691                           ;!       _PWM1_Duty
   692                           ;!       _PWM1_Init
   693                           ;!     _Mi
   694                           ;!       _PWM1_Duty
   695                           ;!       _PWM1_Init
   696                           ;!     _Quiet
   697                           ;!       _PWM1_Duty
   698                           ;!     _Re
   699                           ;!       _PWM1_Duty
   700                           ;!       _PWM1_Init
   701                           ;!     _So
   702                           ;!       _PWM1_Duty
   703                           ;!       _PWM1_Init
   704                           ;!     _delay
   705                           ;!
   706                           
   707                           ;! Address spaces:
   708                           
   709                           ;!Name               Size   Autos  Total    Cost      Usage
   710                           ;!BIGRAM             5F3      0       0      16        0.0%
   711                           ;!EEDATA             100      0       0       0        0.0%
   712                           ;!BITBANK4           100      0       0      11        0.0%
   713                           ;!BANK4              100      0       0      12        0.0%
   714                           ;!BITBANK3           100      0       0       9        0.0%
   715                           ;!BANK3              100      0       0      10        0.0%
   716                           ;!BITBANK2           100      0       0       7        0.0%
   717                           ;!BANK2              100      0       0       8        0.0%
   718                           ;!BITBANK1           100      0       0       5        0.0%
   719                           ;!BANK1              100      0       0       6        0.0%
   720                           ;!BITBANK5            F4      0       0      15        0.0%
   721                           ;!BANK5               F4      0       0      13        0.0%
   722                           ;!BITBANK0            80      0       0       3        0.0%
   723                           ;!BANK0               80      0       0       4        0.0%
   724                           ;!BITCOMRAM           7F      0       0       0        0.0%
   725                           ;!COMRAM              7F      A       C       1        9.4%
   726                           ;!BITSFR_5             0      0       0     200        0.0%
   727                           ;!SFR_5                0      0       0     200        0.0%
   728                           ;!BITSFR_4             0      0       0     200        0.0%
   729                           ;!SFR_4                0      0       0     200        0.0%
   730                           ;!BITSFR_3             0      0       0     200        0.0%
   731                           ;!SFR_3                0      0       0     200        0.0%
   732                           ;!BITSFR_2             0      0       0     200        0.0%
   733                           ;!SFR_2                0      0       0     200        0.0%
   734                           ;!BITSFR_1             0      0       0     200        0.0%
   735                           ;!SFR_1                0      0       0     200        0.0%
   736                           ;!BITSFR               0      0       0     200        0.0%
   737                           ;!SFR                  0      0       0     200        0.0%
   738                           ;!STACK                0      0       0       2        0.0%
   739                           ;!NULL                 0      0       0       0        0.0%
   740                           ;!ABS                  0      0       C      14        0.0%
   741                           ;!DATA                 0      0       C      17        0.0%
   742                           ;!CODE                 0      0       0       0        0.0%
   743                           
   744                           	global	_main
   745                           
   746 ;; *************** function _main *****************
   747 ;; Defined at:
   748 ;;		line 219 in file "motor2.c"
   749 ;; Parameters:    Size  Location     Type
   750 ;;		None
   751 ;; Auto vars:     Size  Location     Type
   752 ;;  flag            2    8[COMRAM] int 
   753 ;;  j               2    6[COMRAM] int 
   754 ;;  i               2    4[COMRAM] int 
   755 ;; Return value:  Size  Location     Type
   756 ;;                  1    wreg      void 
   757 ;; Registers used:
   758 ;;		wreg, status,2, status,0, cstack
   759 ;; Tracked objects:
   760 ;;		On entry : 0/0
   761 ;;		On exit  : 0/0
   762 ;;		Unchanged: 0/0
   763 ;; Data sizes:     COMRAM   BANK0   BANK1   BANK2   BANK3   BANK4   BANK5
   764 ;;      Params:         0       0       0       0       0       0       0
   765 ;;      Locals:         6       0       0       0       0       0       0
   766 ;;      Temps:          0       0       0       0       0       0       0
   767 ;;      Totals:         6       0       0       0       0       0       0
   768 ;;Total ram usage:        6 bytes
   769 ;; Hardware stack levels required when called:    3
   770 ;; This function calls:
   771 ;;		_Do
   772 ;;		_Fa
   773 ;;		_Mi
   774 ;;		_PWM1_Duty
   775 ;;		_PWM1_Start
   776 ;;		_Re
   777 ;;		_So
   778 ;;		_small_bee
   779 ;; This function is called by:
   780 ;;		Startup code after reset
   781 ;; This function uses a non-reentrant model
   782 ;;
   783                           psect	text0,class=CODE,space=0,reloc=2,group=0
   784                           	file	"motor2.c"
   785                           	line	219
   786                           global __ptext0
   787                           __ptext0:
   788  006A98                     psect	text0
   789                           	file	"motor2.c"
   790                           	line	219
   791                           	global	__size_of_main
   792                           	__size_of_main	equ	__end_of_main-_main
   793  0000                     	
   794                           _main:
   795  006A98                     ;incstack = 0
   796                           	opt	stack 28
   797                           	line	222
   798                           	
   799                           l2816:
   800  006A98                     ;motor2.c: 222: 
   801                           	call	_PWM1_Start	;wreg free
   802  006A98  EC81  F034         	line	223
   803                           	
   804                           l2818:
   805  006A9C                     ;motor2.c: 223:            LATAbits.LATA0 = 1;
   806                           	movlw	high(0)
   807  006A9C  0E00               	movwf	((c:main@i+1)),c
   808  006A9E  6E06               	movlw	low(0)
   809  006AA0  0E00               	movwf	((c:main@i)),c
   810  006AA2  6E05               	
   811                           l2820:
   812  006AA4                     	movlw	high(0)
   813  006AA4  0E00               	movwf	((c:main@j+1)),c
   814  006AA6  6E08               	movlw	low(0)
   815  006AA8  0E00               	movwf	((c:main@j)),c
   816  006AAA  6E07               	
   817                           l2822:
   818  006AAC                     	movlw	high(0)
   819  006AAC  0E00               	movwf	((c:main@flag+1)),c
   820  006AAE  6E0A               	movlw	low(0)
   821  006AB0  0E00               	movwf	((c:main@flag)),c
   822  006AB2  6E09               	line	225
   823                           	
   824                           l2824:
   825  006AB4                     ;motor2.c: 225:         }
   826                           	bsf	((c:3989)),c,0	;volatile
   827  006AB4  8095               	line	226
   828                           	
   829                           l2826:
   830  006AB6                     ;motor2.c: 226:         else if(RD1 == 0)
   831                           	bsf	((c:3989)),c,1	;volatile
   832  006AB6  8295               	line	227
   833                           	
   834                           l2828:
   835  006AB8                     ;motor2.c: 227:         {
   836                           	bsf	((c:3989)),c,2	;volatile
   837  006AB8  8495               	line	228
   838                           	
   839                           l2830:
   840  006ABA                     ;motor2.c: 228:             LATAbits.LATA1 = 1;
   841                           	bsf	((c:3989)),c,3	;volatile
   842  006ABA  8695               	line	229
   843                           	
   844                           l2832:
   845  006ABC                     ;motor2.c: 229:             Do();
   846                           	bsf	((c:3988)),c,3	;volatile
   847  006ABC  8694               	line	233
   848                           	
   849                           l2834:
   850  006ABE                     ;motor2.c: 233:             Mi();
   851                           	movlw	low(0)
   852  006ABE  0E00               	movwf	((c:3986)),c	;volatile
   853  006AC0  6E92               	line	234
   854                           	
   855                           l2836:
   856  006AC2                     ;motor2.c: 234:         }
   857                           	movlw	low(0)
   858  006AC2  0E00               	movwf	((c:3977)),c	;volatile
   859  006AC4  6E89               	goto	l2838
   860  006AC6  EF65  F035         	line	235
   861                           ;motor2.c: 235:         else if(RD3 == 0)
   862                           	
   863                           l195:
   864  006ACA                     	line	238
   865                           	
   866                           l2838:
   867  006ACA                     ;motor2.c: 236:         {;motor2.c: 238:         }
   868                           	btfsc	c:(31768/8),(31768)&7	;volatile
   869  006ACA  B083               	goto	u2421
   870  006ACC  EF6A  F035         	goto	u2420
   871  006AD0  EF6C  F035         u2421:
   872  006AD4                     	goto	l196
   873  006AD4  EF73  F035         u2420:
   874  006AD8                     	line	240
   875                           	
   876                           l2840:
   877  006AD8                     ;motor2.c: 239:         else if(RD2 == 0);motor2.c: 240:         {
   878                           	call	_small_bee	;wreg free
   879  006AD8  ECB8  F035         	line	242
   880                           	
   881                           l2842:
   882  006ADC                     ;motor2.c: 242:         }
   883                           	bsf	((c:3977)),c,0	;volatile
   884  006ADC  8089               	line	243
   885                           ;motor2.c: 243:         else
   886                           	call	_Re	;wreg free
   887  006ADE  ECC4  F034         	line	244
   888                           ;motor2.c: 244:         {
   889                           	goto	l2838
   890  006AE2  EF65  F035         	line	245
   891                           ;motor2.c: 245:             PWM1_Duty(0);
   892                           	
   893                           l196:
   894  006AE6                     	btfsc	c:(31769/8),(31769)&7	;volatile
   895  006AE6  B283               	goto	u2431
   896  006AE8  EF78  F035         	goto	u2430
   897  006AEC  EF7A  F035         u2431:
   898  006AF0                     	goto	l198
   899  006AF0  EF7F  F035         u2430:
   900  006AF4                     	line	247
   901                           	
   902                           l2844:
   903  006AF4                     ;motor2.c: 246:             LATA = 0;;motor2.c: 247:         }
   904                           	bsf	((c:3977)),c,1	;volatile
   905  006AF4  8289               	line	248
   906                           	
   907                           l2846:
   908  006AF6                     ;motor2.c: 248:     }
   909                           	call	_Do	;wreg free
   910  006AF6  EC91  F034         	line	249
   911                           ;motor2.c: 249: }
   912                           	goto	l2838
   913  006AFA  EF65  F035         	line	250
   914                           	
   915                           l198:
   916  006AFE                     	btfsc	c:(31763/8),(31763)&7	;volatile
   917  006AFE  B682               	goto	u2441
   918  006B00  EF84  F035         	goto	u2440
   919  006B04  EF86  F035         u2441:
   920  006B08                     	goto	l200
   921  006B08  EF8A  F035         u2440:
   922  006B0C                     	line	252
   923                           	
   924                           l2848:
   925  006B0C                     	call	_Mi	;wreg free
   926  006B0C  ECB3  F034         	line	253
   927                           	goto	l2838
   928  006B10  EF65  F035         	line	254
   929                           	
   930                           l200:
   931  006B14                     	btfsc	c:(31771/8),(31771)&7	;volatile
   932  006B14  B683               	goto	u2451
   933  006B16  EF8F  F035         	goto	u2450
   934  006B1A  EF91  F035         u2451:
   935  006B1E                     	goto	l202
   936  006B1E  EF95  F035         u2450:
   937  006B22                     	line	256
   938                           	
   939                           l2850:
   940  006B22                     	call	_Fa	;wreg free
   941  006B22  ECA2  F034         	line	257
   942                           	goto	l2838
   943  006B26  EF65  F035         	line	258
   944                           	
   945                           l202:
   946  006B2A                     	btfsc	c:(31770/8),(31770)&7	;volatile
   947  006B2A  B483               	goto	u2461
   948  006B2C  EF9A  F035         	goto	u2460
   949  006B30  EF9C  F035         u2461:
   950  006B34                     	goto	l2854
   951  006B34  EFA0  F035         u2460:
   952  006B38                     	line	260
   953                           	
   954                           l2852:
   955  006B38                     	call	_So	;wreg free
   956  006B38  ECD5  F034         	line	261
   957                           	goto	l2838
   958  006B3C  EF65  F035         	line	262
   959                           	
   960                           l204:
   961  006B40                     	line	264
   962                           	
   963                           l2854:
   964  006B40                     	movlw	high(0)
   965  006B40  0E00               	movwf	((c:PWM1_Duty@duty+1)),c
   966  006B42  6E02               	movlw	low(0)
   967  006B44  0E00               	movwf	((c:PWM1_Duty@duty)),c
   968  006B46  6E01               	call	_PWM1_Duty	;wreg free
   969  006B48  ECE6  F034         	line	265
   970                           	
   971                           l2856:
   972  006B4C                     	movlw	low(0)
   973  006B4C  0E00               	movwf	((c:3977)),c	;volatile
   974  006B4E  6E89               	goto	l2838
   975  006B50  EF65  F035         	line	266
   976                           	
   977                           l205:
   978  006B54                     	goto	l2838
   979  006B54  EF65  F035         	
   980                           l203:
   981  006B58                     	goto	l2838
   982  006B58  EF65  F035         	
   983                           l201:
   984  006B5C                     	goto	l2838
   985  006B5C  EF65  F035         	
   986                           l199:
   987  006B60                     	goto	l2838
   988  006B60  EF65  F035         	
   989                           l197:
   990  006B64                     	goto	l2838
   991  006B64  EF65  F035         	line	267
   992                           	
   993                           l206:
   994  006B68                     	goto	l2838
   995  006B68  EF65  F035         	
   996                           l207:
   997  006B6C                     	line	268
   998                           	
   999                           l208:
  1000  006B6C                     	global	start
  1001                           	goto	start
  1002  006B6C  EF00  F000         	opt stack 0
  1003                           GLOBAL	__end_of_main
  1004                           	__end_of_main:
  1005  006B70                     	signat	_main,89
  1006                           	global	_small_bee
  1007                           
  1008 ;; *************** function _small_bee *****************
  1009 ;; Defined at:
  1010 ;;		line 117 in file "motor2.c"
  1011 ;; Parameters:    Size  Location     Type
  1012 ;;		None
  1013 ;; Auto vars:     Size  Location     Type
  1014 ;;		None
  1015 ;; Return value:  Size  Location     Type
  1016 ;;                  1    wreg      void 
  1017 ;; Registers used:
  1018 ;;		wreg, status,2, status,0, cstack
  1019 ;; Tracked objects:
  1020 ;;		On entry : 0/0
  1021 ;;		On exit  : 0/0
  1022 ;;		Unchanged: 0/0
  1023 ;; Data sizes:     COMRAM   BANK0   BANK1   BANK2   BANK3   BANK4   BANK5
  1024 ;;      Params:         0       0       0       0       0       0       0
  1025 ;;      Locals:         0       0       0       0       0       0       0
  1026 ;;      Temps:          0       0       0       0       0       0       0
  1027 ;;      Totals:         0       0       0       0       0       0       0
  1028 ;;Total ram usage:        0 bytes
  1029 ;; Hardware stack levels used:    1
  1030 ;; Hardware stack levels required when called:    2
  1031 ;; This function calls:
  1032 ;;		_Do
  1033 ;;		_Fa
  1034 ;;		_Mi
  1035 ;;		_Quiet
  1036 ;;		_Re
  1037 ;;		_So
  1038 ;;		_delay
  1039 ;; This function is called by:
  1040 ;;		_main
  1041 ;; This function uses a non-reentrant model
  1042 ;;
  1043                           psect	text1,class=CODE,space=0,reloc=2,group=0
  1044                           	line	117
  1045                           global __ptext1
  1046                           __ptext1:
  1047  006B70                     psect	text1
  1048                           	file	"motor2.c"
  1049                           	line	117
  1050                           	global	__size_of_small_bee
  1051                           	__size_of_small_bee	equ	__end_of_small_bee-_small_bee
  1052  0000                     	
  1053                           _small_bee:
  1054  006B70                     ;incstack = 0
  1055                           	opt	stack 28
  1056                           	line	119
  1057                           	
  1058                           l1912:
  1059  006B70                     ;motor2.c: 119:     Quiet(); delay();if(flag == 1){flag = 0;return;}
  1060                           	call	_So	;wreg free
  1061  006B70  ECD5  F034         	call	_delay	;wreg free
  1062  006B74  ECFF  F034         	
  1063                           l1914:
  1064  006B78                     		decf	((c:_flag)),c,w
  1065  006B78  040B               iorwf	((c:_flag+1)),c,w
  1066  006B7A  100C               	btfss	status,2
  1067  006B7C  A4D8               	goto	u1291
  1068  006B7E  EFC3  F035         	goto	u1290
  1069  006B82  EFC5  F035         
  1070                           u1291:
  1071  006B86                     	goto	l1920
  1072  006B86  EFCD  F035         u1290:
  1073  006B8A                     	
  1074                           l1916:
  1075  006B8A                     	movlw	high(0)
  1076  006B8A  0E00               	movwf	((c:_flag+1)),c
  1077  006B8C  6E0C               	movlw	low(0)
  1078  006B8E  0E00               	movwf	((c:_flag)),c
  1079  006B90  6E0B               	goto	l78
  1080  006B92  EFDF  F03E         	
  1081                           l1918:
  1082  006B96                     	goto	l78
  1083  006B96  EFDF  F03E         	
  1084                           l77:
  1085  006B9A                     	line	120
  1086                           	
  1087                           l1920:
  1088  006B9A                     ;motor2.c: 120:     So(); delay();if(flag == 1){flag = 0;return;}
  1089                           	call	_Quiet	;wreg free
  1090  006B9A  EC7A  F034         	call	_delay	;wreg free
  1091  006B9E  ECFF  F034         	
  1092                           l1922:
  1093  006BA2                     		decf	((c:_flag)),c,w
  1094  006BA2  040B               iorwf	((c:_flag+1)),c,w
  1095  006BA4  100C               	btfss	status,2
  1096  006BA6  A4D8               	goto	u1301
  1097  006BA8  EFD8  F035         	goto	u1300
  1098  006BAC  EFDA  F035         
  1099                           u1301:
  1100  006BB0                     	goto	l1928
  1101  006BB0  EFE2  F035         u1300:
  1102  006BB4                     	
  1103                           l1924:
  1104  006BB4                     	movlw	high(0)
  1105  006BB4  0E00               	movwf	((c:_flag+1)),c
  1106  006BB6  6E0C               	movlw	low(0)
  1107  006BB8  0E00               	movwf	((c:_flag)),c
  1108  006BBA  6E0B               	goto	l78
  1109  006BBC  EFDF  F03E         	
  1110                           l1926:
  1111  006BC0                     	goto	l78
  1112  006BC0  EFDF  F03E         	
  1113                           l79:
  1114  006BC4                     	line	121
  1115                           	
  1116                           l1928:
  1117  006BC4                     ;motor2.c: 121:     Quiet(); delay();if(flag == 1){flag = 0;return;}
  1118                           	call	_Mi	;wreg free
  1119  006BC4  ECB3  F034         	call	_delay	;wreg free
  1120  006BC8  ECFF  F034         	
  1121                           l1930:
  1122  006BCC                     		decf	((c:_flag)),c,w
  1123  006BCC  040B               iorwf	((c:_flag+1)),c,w
  1124  006BCE  100C               	btfss	status,2
  1125  006BD0  A4D8               	goto	u1311
  1126  006BD2  EFED  F035         	goto	u1310
  1127  006BD6  EFEF  F035         
  1128                           u1311:
  1129  006BDA                     	goto	l1936
  1130  006BDA  EFF7  F035         u1310:
  1131  006BDE                     	
  1132                           l1932:
  1133  006BDE                     	movlw	high(0)
  1134  006BDE  0E00               	movwf	((c:_flag+1)),c
  1135  006BE0  6E0C               	movlw	low(0)
  1136  006BE2  0E00               	movwf	((c:_flag)),c
  1137  006BE4  6E0B               	goto	l78
  1138  006BE6  EFDF  F03E         	
  1139                           l1934:
  1140  006BEA                     	goto	l78
  1141  006BEA  EFDF  F03E         	
  1142                           l80:
  1143  006BEE                     	line	122
  1144                           	
  1145                           l1936:
  1146  006BEE                     ;motor2.c: 122:     So(); delay();if(flag == 1){flag = 0;return;}
  1147                           	call	_Quiet	;wreg free
  1148  006BEE  EC7A  F034         	call	_delay	;wreg free
  1149  006BF2  ECFF  F034         	
  1150                           l1938:
  1151  006BF6                     		decf	((c:_flag)),c,w
  1152  006BF6  040B               iorwf	((c:_flag+1)),c,w
  1153  006BF8  100C               	btfss	status,2
  1154  006BFA  A4D8               	goto	u1321
  1155  006BFC  EF02  F036         	goto	u1320
  1156  006C00  EF04  F036         
  1157                           u1321:
  1158  006C04                     	goto	l1944
  1159  006C04  EF0C  F036         u1320:
  1160  006C08                     	
  1161                           l1940:
  1162  006C08                     	movlw	high(0)
  1163  006C08  0E00               	movwf	((c:_flag+1)),c
  1164  006C0A  6E0C               	movlw	low(0)
  1165  006C0C  0E00               	movwf	((c:_flag)),c
  1166  006C0E  6E0B               	goto	l78
  1167  006C10  EFDF  F03E         	
  1168                           l1942:
  1169  006C14                     	goto	l78
  1170  006C14  EFDF  F03E         	
  1171                           l81:
  1172  006C18                     	line	123
  1173                           	
  1174                           l1944:
  1175  006C18                     ;motor2.c: 123:     Quiet(); delay();if(flag == 1){flag = 0;return;}
  1176                           	call	_Mi	;wreg free
  1177  006C18  ECB3  F034         	call	_delay	;wreg free
  1178  006C1C  ECFF  F034         	
  1179                           l1946:
  1180  006C20                     		decf	((c:_flag)),c,w
  1181  006C20  040B               iorwf	((c:_flag+1)),c,w
  1182  006C22  100C               	btfss	status,2
  1183  006C24  A4D8               	goto	u1331
  1184  006C26  EF17  F036         	goto	u1330
  1185  006C2A  EF19  F036         
  1186                           u1331:
  1187  006C2E                     	goto	l1952
  1188  006C2E  EF21  F036         u1330:
  1189  006C32                     	
  1190                           l1948:
  1191  006C32                     	movlw	high(0)
  1192  006C32  0E00               	movwf	((c:_flag+1)),c
  1193  006C34  6E0C               	movlw	low(0)
  1194  006C36  0E00               	movwf	((c:_flag)),c
  1195  006C38  6E0B               	goto	l78
  1196  006C3A  EFDF  F03E         	
  1197                           l1950:
  1198  006C3E                     	goto	l78
  1199  006C3E  EFDF  F03E         	
  1200                           l82:
  1201  006C42                     	
  1202                           l1952:
  1203  006C42                     	call	_delay	;wreg free
  1204  006C42  ECFF  F034         	
  1205                           l1954:
  1206  006C46                     		decf	((c:_flag)),c,w
  1207  006C46  040B               iorwf	((c:_flag+1)),c,w
  1208  006C48  100C               	btfss	status,2
  1209  006C4A  A4D8               	goto	u1341
  1210  006C4C  EF2A  F036         	goto	u1340
  1211  006C50  EF2C  F036         
  1212                           u1341:
  1213  006C54                     	goto	l1960
  1214  006C54  EF34  F036         u1340:
  1215  006C58                     	
  1216                           l1956:
  1217  006C58                     	movlw	high(0)
  1218  006C58  0E00               	movwf	((c:_flag+1)),c
  1219  006C5A  6E0C               	movlw	low(0)
  1220  006C5C  0E00               	movwf	((c:_flag)),c
  1221  006C5E  6E0B               	goto	l78
  1222  006C60  EFDF  F03E         	
  1223                           l1958:
  1224  006C64                     	goto	l78
  1225  006C64  EFDF  F03E         	
  1226                           l83:
  1227  006C68                     	line	124
  1228                           	
  1229                           l1960:
  1230  006C68                     ;motor2.c: 124:     So(); delay();if(flag == 1){flag = 0;return;} delay();if(flag == 1){
                                 flag = 0;return;}
  1231                           	call	_Quiet	;wreg free
  1232  006C68  EC7A  F034         	call	_delay	;wreg free
  1233  006C6C  ECFF  F034         	
  1234                           l1962:
  1235  006C70                     		decf	((c:_flag)),c,w
  1236  006C70  040B               iorwf	((c:_flag+1)),c,w
  1237  006C72  100C               	btfss	status,2
  1238  006C74  A4D8               	goto	u1351
  1239  006C76  EF3F  F036         	goto	u1350
  1240  006C7A  EF41  F036         
  1241                           u1351:
  1242  006C7E                     	goto	l1968
  1243  006C7E  EF49  F036         u1350:
  1244  006C82                     	
  1245                           l1964:
  1246  006C82                     	movlw	high(0)
  1247  006C82  0E00               	movwf	((c:_flag+1)),c
  1248  006C84  6E0C               	movlw	low(0)
  1249  006C86  0E00               	movwf	((c:_flag)),c
  1250  006C88  6E0B               	goto	l78
  1251  006C8A  EFDF  F03E         	
  1252                           l1966:
  1253  006C8E                     	goto	l78
  1254  006C8E  EFDF  F03E         	
  1255                           l84:
  1256  006C92                     	line	125
  1257                           	
  1258                           l1968:
  1259  006C92                     ;motor2.c: 125:     Quiet(); delay();if(flag == 1){flag = 0;return;}
  1260                           	call	_Fa	;wreg free
  1261  006C92  ECA2  F034         	call	_delay	;wreg free
  1262  006C96  ECFF  F034         	
  1263                           l1970:
  1264  006C9A                     		decf	((c:_flag)),c,w
  1265  006C9A  040B               iorwf	((c:_flag+1)),c,w
  1266  006C9C  100C               	btfss	status,2
  1267  006C9E  A4D8               	goto	u1361
  1268  006CA0  EF54  F036         	goto	u1360
  1269  006CA4  EF56  F036         
  1270                           u1361:
  1271  006CA8                     	goto	l1976
  1272  006CA8  EF5E  F036         u1360:
  1273  006CAC                     	
  1274                           l1972:
  1275  006CAC                     	movlw	high(0)
  1276  006CAC  0E00               	movwf	((c:_flag+1)),c
  1277  006CAE  6E0C               	movlw	low(0)
  1278  006CB0  0E00               	movwf	((c:_flag)),c
  1279  006CB2  6E0B               	goto	l78
  1280  006CB4  EFDF  F03E         	
  1281                           l1974:
  1282  006CB8                     	goto	l78
  1283  006CB8  EFDF  F03E         	
  1284                           l85:
  1285  006CBC                     	line	126
  1286                           	
  1287                           l1976:
  1288  006CBC                     ;motor2.c: 126:     So(); delay();if(flag == 1){flag = 0;return;}
  1289                           	call	_Quiet	;wreg free
  1290  006CBC  EC7A  F034         	call	_delay	;wreg free
  1291  006CC0  ECFF  F034         	
  1292                           l1978:
  1293  006CC4                     		decf	((c:_flag)),c,w
  1294  006CC4  040B               iorwf	((c:_flag+1)),c,w
  1295  006CC6  100C               	btfss	status,2
  1296  006CC8  A4D8               	goto	u1371
  1297  006CCA  EF69  F036         	goto	u1370
  1298  006CCE  EF6B  F036         
  1299                           u1371:
  1300  006CD2                     	goto	l1984
  1301  006CD2  EF73  F036         u1370:
  1302  006CD6                     	
  1303                           l1980:
  1304  006CD6                     	movlw	high(0)
  1305  006CD6  0E00               	movwf	((c:_flag+1)),c
  1306  006CD8  6E0C               	movlw	low(0)
  1307  006CDA  0E00               	movwf	((c:_flag)),c
  1308  006CDC  6E0B               	goto	l78
  1309  006CDE  EFDF  F03E         	
  1310                           l1982:
  1311  006CE2                     	goto	l78
  1312  006CE2  EFDF  F03E         	
  1313                           l86:
  1314  006CE6                     	line	127
  1315                           	
  1316                           l1984:
  1317  006CE6                     ;motor2.c: 127:     Quiet(); delay();if(flag == 1){flag = 0;return;}
  1318                           	call	_Re	;wreg free
  1319  006CE6  ECC4  F034         	call	_delay	;wreg free
  1320  006CEA  ECFF  F034         	
  1321                           l1986:
  1322  006CEE                     		decf	((c:_flag)),c,w
  1323  006CEE  040B               iorwf	((c:_flag+1)),c,w
  1324  006CF0  100C               	btfss	status,2
  1325  006CF2  A4D8               	goto	u1381
  1326  006CF4  EF7E  F036         	goto	u1380
  1327  006CF8  EF80  F036         
  1328                           u1381:
  1329  006CFC                     	goto	l1992
  1330  006CFC  EF88  F036         u1380:
  1331  006D00                     	
  1332                           l1988:
  1333  006D00                     	movlw	high(0)
  1334  006D00  0E00               	movwf	((c:_flag+1)),c
  1335  006D02  6E0C               	movlw	low(0)
  1336  006D04  0E00               	movwf	((c:_flag)),c
  1337  006D06  6E0B               	goto	l78
  1338  006D08  EFDF  F03E         	
  1339                           l1990:
  1340  006D0C                     	goto	l78
  1341  006D0C  EFDF  F03E         	
  1342                           l87:
  1343  006D10                     	line	128
  1344                           	
  1345                           l1992:
  1346  006D10                     ;motor2.c: 128:     Mi(); delay();if(flag == 1){flag = 0;return;}
  1347                           	call	_Quiet	;wreg free
  1348  006D10  EC7A  F034         	call	_delay	;wreg free
  1349  006D14  ECFF  F034         	
  1350                           l1994:
  1351  006D18                     		decf	((c:_flag)),c,w
  1352  006D18  040B               iorwf	((c:_flag+1)),c,w
  1353  006D1A  100C               	btfss	status,2
  1354  006D1C  A4D8               	goto	u1391
  1355  006D1E  EF93  F036         	goto	u1390
  1356  006D22  EF95  F036         
  1357                           u1391:
  1358  006D26                     	goto	l2000
  1359  006D26  EF9D  F036         u1390:
  1360  006D2A                     	
  1361                           l1996:
  1362  006D2A                     	movlw	high(0)
  1363  006D2A  0E00               	movwf	((c:_flag+1)),c
  1364  006D2C  6E0C               	movlw	low(0)
  1365  006D2E  0E00               	movwf	((c:_flag)),c
  1366  006D30  6E0B               	goto	l78
  1367  006D32  EFDF  F03E         	
  1368                           l1998:
  1369  006D36                     	goto	l78
  1370  006D36  EFDF  F03E         	
  1371                           l88:
  1372  006D3A                     	line	129
  1373                           	
  1374                           l2000:
  1375  006D3A                     ;motor2.c: 129:     Quiet(); delay();if(flag == 1){flag = 0;return;}
  1376                           	call	_Re	;wreg free
  1377  006D3A  ECC4  F034         	call	_delay	;wreg free
  1378  006D3E  ECFF  F034         	
  1379                           l2002:
  1380  006D42                     		decf	((c:_flag)),c,w
  1381  006D42  040B               iorwf	((c:_flag+1)),c,w
  1382  006D44  100C               	btfss	status,2
  1383  006D46  A4D8               	goto	u1401
  1384  006D48  EFA8  F036         	goto	u1400
  1385  006D4C  EFAA  F036         
  1386                           u1401:
  1387  006D50                     	goto	l2008
  1388  006D50  EFB2  F036         u1400:
  1389  006D54                     	
  1390                           l2004:
  1391  006D54                     	movlw	high(0)
  1392  006D54  0E00               	movwf	((c:_flag+1)),c
  1393  006D56  6E0C               	movlw	low(0)
  1394  006D58  0E00               	movwf	((c:_flag)),c
  1395  006D5A  6E0B               	goto	l78
  1396  006D5C  EFDF  F03E         	
  1397                           l2006:
  1398  006D60                     	goto	l78
  1399  006D60  EFDF  F03E         	
  1400                           l89:
  1401  006D64                     	
  1402                           l2008:
  1403  006D64                     	call	_delay	;wreg free
  1404  006D64  ECFF  F034         	
  1405                           l2010:
  1406  006D68                     		decf	((c:_flag)),c,w
  1407  006D68  040B               iorwf	((c:_flag+1)),c,w
  1408  006D6A  100C               	btfss	status,2
  1409  006D6C  A4D8               	goto	u1411
  1410  006D6E  EFBB  F036         	goto	u1410
  1411  006D72  EFBD  F036         
  1412                           u1411:
  1413  006D76                     	goto	l2016
  1414  006D76  EFC5  F036         u1410:
  1415  006D7A                     	
  1416                           l2012:
  1417  006D7A                     	movlw	high(0)
  1418  006D7A  0E00               	movwf	((c:_flag+1)),c
  1419  006D7C  6E0C               	movlw	low(0)
  1420  006D7E  0E00               	movwf	((c:_flag)),c
  1421  006D80  6E0B               	goto	l78
  1422  006D82  EFDF  F03E         	
  1423                           l2014:
  1424  006D86                     	goto	l78
  1425  006D86  EFDF  F03E         	
  1426                           l90:
  1427  006D8A                     	line	130
  1428                           	
  1429                           l2016:
  1430  006D8A                     ;motor2.c: 130:     Mi(); delay(); if(flag == 1){flag = 0;return;}delay();if(flag == 1){
                                 flag = 0;return;}
  1431                           	call	_Quiet	;wreg free
  1432  006D8A  EC7A  F034         	call	_delay	;wreg free
  1433  006D8E  ECFF  F034         	
  1434                           l2018:
  1435  006D92                     		decf	((c:_flag)),c,w
  1436  006D92  040B               iorwf	((c:_flag+1)),c,w
  1437  006D94  100C               	btfss	status,2
  1438  006D96  A4D8               	goto	u1421
  1439  006D98  EFD0  F036         	goto	u1420
  1440  006D9C  EFD2  F036         
  1441                           u1421:
  1442  006DA0                     	goto	l2024
  1443  006DA0  EFDA  F036         u1420:
  1444  006DA4                     	
  1445                           l2020:
  1446  006DA4                     	movlw	high(0)
  1447  006DA4  0E00               	movwf	((c:_flag+1)),c
  1448  006DA6  6E0C               	movlw	low(0)
  1449  006DA8  0E00               	movwf	((c:_flag)),c
  1450  006DAA  6E0B               	goto	l78
  1451  006DAC  EFDF  F03E         	
  1452                           l2022:
  1453  006DB0                     	goto	l78
  1454  006DB0  EFDF  F03E         	
  1455                           l91:
  1456  006DB4                     	line	131
  1457                           	
  1458                           l2024:
  1459  006DB4                     ;motor2.c: 131:     Quiet(); delay();if(flag == 1){flag = 0;return;}
  1460                           	call	_Do	;wreg free
  1461  006DB4  EC91  F034         	call	_delay	;wreg free
  1462  006DB8  ECFF  F034         	
  1463                           l2026:
  1464  006DBC                     		decf	((c:_flag)),c,w
  1465  006DBC  040B               iorwf	((c:_flag+1)),c,w
  1466  006DBE  100C               	btfss	status,2
  1467  006DC0  A4D8               	goto	u1431
  1468  006DC2  EFE5  F036         	goto	u1430
  1469  006DC6  EFE7  F036         
  1470                           u1431:
  1471  006DCA                     	goto	l2032
  1472  006DCA  EFEF  F036         u1430:
  1473  006DCE                     	
  1474                           l2028:
  1475  006DCE                     	movlw	high(0)
  1476  006DCE  0E00               	movwf	((c:_flag+1)),c
  1477  006DD0  6E0C               	movlw	low(0)
  1478  006DD2  0E00               	movwf	((c:_flag)),c
  1479  006DD4  6E0B               	goto	l78
  1480  006DD6  EFDF  F03E         	
  1481                           l2030:
  1482  006DDA                     	goto	l78
  1483  006DDA  EFDF  F03E         	
  1484                           l92:
  1485  006DDE                     	line	132
  1486                           	
  1487                           l2032:
  1488  006DDE                     ;motor2.c: 132:     Fa(); delay();if(flag == 1){flag = 0;return;}
  1489                           	call	_Quiet	;wreg free
  1490  006DDE  EC7A  F034         	call	_delay	;wreg free
  1491  006DE2  ECFF  F034         	
  1492                           l2034:
  1493  006DE6                     		decf	((c:_flag)),c,w
  1494  006DE6  040B               iorwf	((c:_flag+1)),c,w
  1495  006DE8  100C               	btfss	status,2
  1496  006DEA  A4D8               	goto	u1441
  1497  006DEC  EFFA  F036         	goto	u1440
  1498  006DF0  EFFC  F036         
  1499                           u1441:
  1500  006DF4                     	goto	l2040
  1501  006DF4  EF04  F037         u1440:
  1502  006DF8                     	
  1503                           l2036:
  1504  006DF8                     	movlw	high(0)
  1505  006DF8  0E00               	movwf	((c:_flag+1)),c
  1506  006DFA  6E0C               	movlw	low(0)
  1507  006DFC  0E00               	movwf	((c:_flag)),c
  1508  006DFE  6E0B               	goto	l78
  1509  006E00  EFDF  F03E         	
  1510                           l2038:
  1511  006E04                     	goto	l78
  1512  006E04  EFDF  F03E         	
  1513                           l93:
  1514  006E08                     	line	133
  1515                           	
  1516                           l2040:
  1517  006E08                     ;motor2.c: 133:     Quiet(); delay();if(flag == 1){flag = 0;return;}
  1518                           	call	_Re	;wreg free
  1519  006E08  ECC4  F034         	call	_delay	;wreg free
  1520  006E0C  ECFF  F034         	
  1521                           l2042:
  1522  006E10                     		decf	((c:_flag)),c,w
  1523  006E10  040B               iorwf	((c:_flag+1)),c,w
  1524  006E12  100C               	btfss	status,2
  1525  006E14  A4D8               	goto	u1451
  1526  006E16  EF0F  F037         	goto	u1450
  1527  006E1A  EF11  F037         
  1528                           u1451:
  1529  006E1E                     	goto	l2048
  1530  006E1E  EF19  F037         u1450:
  1531  006E22                     	
  1532                           l2044:
  1533  006E22                     	movlw	high(0)
  1534  006E22  0E00               	movwf	((c:_flag+1)),c
  1535  006E24  6E0C               	movlw	low(0)
  1536  006E26  0E00               	movwf	((c:_flag)),c
  1537  006E28  6E0B               	goto	l78
  1538  006E2A  EFDF  F03E         	
  1539                           l2046:
  1540  006E2E                     	goto	l78
  1541  006E2E  EFDF  F03E         	
  1542                           l94:
  1543  006E32                     	line	134
  1544                           	
  1545                           l2048:
  1546  006E32                     ;motor2.c: 134:     Re(); delay();if(flag == 1){flag = 0;return;}
  1547                           	call	_Quiet	;wreg free
  1548  006E32  EC7A  F034         	call	_delay	;wreg free
  1549  006E36  ECFF  F034         	
  1550                           l2050:
  1551  006E3A                     		decf	((c:_flag)),c,w
  1552  006E3A  040B               iorwf	((c:_flag+1)),c,w
  1553  006E3C  100C               	btfss	status,2
  1554  006E3E  A4D8               	goto	u1461
  1555  006E40  EF24  F037         	goto	u1460
  1556  006E44  EF26  F037         
  1557                           u1461:
  1558  006E48                     	goto	l2056
  1559  006E48  EF2E  F037         u1460:
  1560  006E4C                     	
  1561                           l2052:
  1562  006E4C                     	movlw	high(0)
  1563  006E4C  0E00               	movwf	((c:_flag+1)),c
  1564  006E4E  6E0C               	movlw	low(0)
  1565  006E50  0E00               	movwf	((c:_flag)),c
  1566  006E52  6E0B               	goto	l78
  1567  006E54  EFDF  F03E         	
  1568                           l2054:
  1569  006E58                     	goto	l78
  1570  006E58  EFDF  F03E         	
  1571                           l95:
  1572  006E5C                     	line	135
  1573                           	
  1574                           l2056:
  1575  006E5C                     ;motor2.c: 135:     Quiet(); delay();if(flag == 1){flag = 0;return;}
  1576                           	call	_Mi	;wreg free
  1577  006E5C  ECB3  F034         	call	_delay	;wreg free
  1578  006E60  ECFF  F034         	
  1579                           l2058:
  1580  006E64                     		decf	((c:_flag)),c,w
  1581  006E64  040B               iorwf	((c:_flag+1)),c,w
  1582  006E66  100C               	btfss	status,2
  1583  006E68  A4D8               	goto	u1471
  1584  006E6A  EF39  F037         	goto	u1470
  1585  006E6E  EF3B  F037         
  1586                           u1471:
  1587  006E72                     	goto	l2064
  1588  006E72  EF43  F037         u1470:
  1589  006E76                     	
  1590                           l2060:
  1591  006E76                     	movlw	high(0)
  1592  006E76  0E00               	movwf	((c:_flag+1)),c
  1593  006E78  6E0C               	movlw	low(0)
  1594  006E7A  0E00               	movwf	((c:_flag)),c
  1595  006E7C  6E0B               	goto	l78
  1596  006E7E  EFDF  F03E         	
  1597                           l2062:
  1598  006E82                     	goto	l78
  1599  006E82  EFDF  F03E         	
  1600                           l96:
  1601  006E86                     	line	136
  1602                           	
  1603                           l2064:
  1604  006E86                     ;motor2.c: 136:     Re(); delay();if(flag == 1){flag = 0;return;} delay();if(flag == 1){
                                 flag = 0;return;}
  1605                           	call	_Quiet	;wreg free
  1606  006E86  EC7A  F034         	call	_delay	;wreg free
  1607  006E8A  ECFF  F034         	
  1608                           l2066:
  1609  006E8E                     		decf	((c:_flag)),c,w
  1610  006E8E  040B               iorwf	((c:_flag+1)),c,w
  1611  006E90  100C               	btfss	status,2
  1612  006E92  A4D8               	goto	u1481
  1613  006E94  EF4E  F037         	goto	u1480
  1614  006E98  EF50  F037         
  1615                           u1481:
  1616  006E9C                     	goto	l2072
  1617  006E9C  EF58  F037         u1480:
  1618  006EA0                     	
  1619                           l2068:
  1620  006EA0                     	movlw	high(0)
  1621  006EA0  0E00               	movwf	((c:_flag+1)),c
  1622  006EA2  6E0C               	movlw	low(0)
  1623  006EA4  0E00               	movwf	((c:_flag)),c
  1624  006EA6  6E0B               	goto	l78
  1625  006EA8  EFDF  F03E         	
  1626                           l2070:
  1627  006EAC                     	goto	l78
  1628  006EAC  EFDF  F03E         	
  1629                           l97:
  1630  006EB0                     	line	137
  1631                           	
  1632                           l2072:
  1633  006EB0                     ;motor2.c: 137:     Quiet(); delay();if(flag == 1){flag = 0;return;}
  1634                           	call	_Fa	;wreg free
  1635  006EB0  ECA2  F034         	call	_delay	;wreg free
  1636  006EB4  ECFF  F034         	
  1637                           l2074:
  1638  006EB8                     		decf	((c:_flag)),c,w
  1639  006EB8  040B               iorwf	((c:_flag+1)),c,w
  1640  006EBA  100C               	btfss	status,2
  1641  006EBC  A4D8               	goto	u1491
  1642  006EBE  EF63  F037         	goto	u1490
  1643  006EC2  EF65  F037         
  1644                           u1491:
  1645  006EC6                     	goto	l2080
  1646  006EC6  EF6D  F037         u1490:
  1647  006ECA                     	
  1648                           l2076:
  1649  006ECA                     	movlw	high(0)
  1650  006ECA  0E00               	movwf	((c:_flag+1)),c
  1651  006ECC  6E0C               	movlw	low(0)
  1652  006ECE  0E00               	movwf	((c:_flag)),c
  1653  006ED0  6E0B               	goto	l78
  1654  006ED2  EFDF  F03E         	
  1655                           l2078:
  1656  006ED6                     	goto	l78
  1657  006ED6  EFDF  F03E         	
  1658                           l98:
  1659  006EDA                     	line	138
  1660                           	
  1661                           l2080:
  1662  006EDA                     ;motor2.c: 138:     Do(); delay();if(flag == 1){flag = 0;return;}
  1663                           	call	_Quiet	;wreg free
  1664  006EDA  EC7A  F034         	call	_delay	;wreg free
  1665  006EDE  ECFF  F034         	
  1666                           l2082:
  1667  006EE2                     		decf	((c:_flag)),c,w
  1668  006EE2  040B               iorwf	((c:_flag+1)),c,w
  1669  006EE4  100C               	btfss	status,2
  1670  006EE6  A4D8               	goto	u1501
  1671  006EE8  EF78  F037         	goto	u1500
  1672  006EEC  EF7A  F037         
  1673                           u1501:
  1674  006EF0                     	goto	l2088
  1675  006EF0  EF82  F037         u1500:
  1676  006EF4                     	
  1677                           l2084:
  1678  006EF4                     	movlw	high(0)
  1679  006EF4  0E00               	movwf	((c:_flag+1)),c
  1680  006EF6  6E0C               	movlw	low(0)
  1681  006EF8  0E00               	movwf	((c:_flag)),c
  1682  006EFA  6E0B               	goto	l78
  1683  006EFC  EFDF  F03E         	
  1684                           l2086:
  1685  006F00                     	goto	l78
  1686  006F00  EFDF  F03E         	
  1687                           l99:
  1688  006F04                     	line	139
  1689                           	
  1690                           l2088:
  1691  006F04                     ;motor2.c: 139:     Quiet(); delay();if(flag == 1){flag = 0;return;}
  1692                           	call	_So	;wreg free
  1693  006F04  ECD5  F034         	call	_delay	;wreg free
  1694  006F08  ECFF  F034         	
  1695                           l2090:
  1696  006F0C                     		decf	((c:_flag)),c,w
  1697  006F0C  040B               iorwf	((c:_flag+1)),c,w
  1698  006F0E  100C               	btfss	status,2
  1699  006F10  A4D8               	goto	u1511
  1700  006F12  EF8D  F037         	goto	u1510
  1701  006F16  EF8F  F037         
  1702                           u1511:
  1703  006F1A                     	goto	l2096
  1704  006F1A  EF97  F037         u1510:
  1705  006F1E                     	
  1706                           l2092:
  1707  006F1E                     	movlw	high(0)
  1708  006F1E  0E00               	movwf	((c:_flag+1)),c
  1709  006F20  6E0C               	movlw	low(0)
  1710  006F22  0E00               	movwf	((c:_flag)),c
  1711  006F24  6E0B               	goto	l78
  1712  006F26  EFDF  F03E         	
  1713                           l2094:
  1714  006F2A                     	goto	l78
  1715  006F2A  EFDF  F03E         	
  1716                           l100:
  1717  006F2E                     	line	140
  1718                           	
  1719                           l2096:
  1720  006F2E                     ;motor2.c: 140:     Mi(); delay();if(flag == 1){flag = 0;return;}
  1721                           	call	_Quiet	;wreg free
  1722  006F2E  EC7A  F034         	call	_delay	;wreg free
  1723  006F32  ECFF  F034         	
  1724                           l2098:
  1725  006F36                     		decf	((c:_flag)),c,w
  1726  006F36  040B               iorwf	((c:_flag+1)),c,w
  1727  006F38  100C               	btfss	status,2
  1728  006F3A  A4D8               	goto	u1521
  1729  006F3C  EFA2  F037         	goto	u1520
  1730  006F40  EFA4  F037         
  1731                           u1521:
  1732  006F44                     	goto	l2104
  1733  006F44  EFAC  F037         u1520:
  1734  006F48                     	
  1735                           l2100:
  1736  006F48                     	movlw	high(0)
  1737  006F48  0E00               	movwf	((c:_flag+1)),c
  1738  006F4A  6E0C               	movlw	low(0)
  1739  006F4C  0E00               	movwf	((c:_flag)),c
  1740  006F4E  6E0B               	goto	l78
  1741  006F50  EFDF  F03E         	
  1742                           l2102:
  1743  006F54                     	goto	l78
  1744  006F54  EFDF  F03E         	
  1745                           l101:
  1746  006F58                     	line	141
  1747                           	
  1748                           l2104:
  1749  006F58                     ;motor2.c: 141:     Quiet(); delay();if(flag == 1){flag = 0;return;}
  1750                           	call	_So	;wreg free
  1751  006F58  ECD5  F034         	call	_delay	;wreg free
  1752  006F5C  ECFF  F034         	
  1753                           l2106:
  1754  006F60                     		decf	((c:_flag)),c,w
  1755  006F60  040B               iorwf	((c:_flag+1)),c,w
  1756  006F62  100C               	btfss	status,2
  1757  006F64  A4D8               	goto	u1531
  1758  006F66  EFB7  F037         	goto	u1530
  1759  006F6A  EFB9  F037         
  1760                           u1531:
  1761  006F6E                     	goto	l2112
  1762  006F6E  EFC1  F037         u1530:
  1763  006F72                     	
  1764                           l2108:
  1765  006F72                     	movlw	high(0)
  1766  006F72  0E00               	movwf	((c:_flag+1)),c
  1767  006F74  6E0C               	movlw	low(0)
  1768  006F76  0E00               	movwf	((c:_flag)),c
  1769  006F78  6E0B               	goto	l78
  1770  006F7A  EFDF  F03E         	
  1771                           l2110:
  1772  006F7E                     	goto	l78
  1773  006F7E  EFDF  F03E         	
  1774                           l102:
  1775  006F82                     	line	142
  1776                           	
  1777                           l2112:
  1778  006F82                     ;motor2.c: 142:      So(); delay();if(flag == 1){flag = 0;return;}
  1779                           	call	_Quiet	;wreg free
  1780  006F82  EC7A  F034         	call	_delay	;wreg free
  1781  006F86  ECFF  F034         	
  1782                           l2114:
  1783  006F8A                     		decf	((c:_flag)),c,w
  1784  006F8A  040B               iorwf	((c:_flag+1)),c,w
  1785  006F8C  100C               	btfss	status,2
  1786  006F8E  A4D8               	goto	u1541
  1787  006F90  EFCC  F037         	goto	u1540
  1788  006F94  EFCE  F037         
  1789                           u1541:
  1790  006F98                     	goto	l2120
  1791  006F98  EFD6  F037         u1540:
  1792  006F9C                     	
  1793                           l2116:
  1794  006F9C                     	movlw	high(0)
  1795  006F9C  0E00               	movwf	((c:_flag+1)),c
  1796  006F9E  6E0C               	movlw	low(0)
  1797  006FA0  0E00               	movwf	((c:_flag)),c
  1798  006FA2  6E0B               	goto	l78
  1799  006FA4  EFDF  F03E         	
  1800                           l2118:
  1801  006FA8                     	goto	l78
  1802  006FA8  EFDF  F03E         	
  1803                           l103:
  1804  006FAC                     	line	143
  1805                           	
  1806                           l2120:
  1807  006FAC                     ;motor2.c: 143:     Quiet(); delay();if(flag == 1){flag = 0;return;}
  1808                           	call	_So	;wreg free
  1809  006FAC  ECD5  F034         	call	_delay	;wreg free
  1810  006FB0  ECFF  F034         	
  1811                           l2122:
  1812  006FB4                     		decf	((c:_flag)),c,w
  1813  006FB4  040B               iorwf	((c:_flag+1)),c,w
  1814  006FB6  100C               	btfss	status,2
  1815  006FB8  A4D8               	goto	u1551
  1816  006FBA  EFE1  F037         	goto	u1550
  1817  006FBE  EFE3  F037         
  1818                           u1551:
  1819  006FC2                     	goto	l2128
  1820  006FC2  EFEB  F037         u1550:
  1821  006FC6                     	
  1822                           l2124:
  1823  006FC6                     	movlw	high(0)
  1824  006FC6  0E00               	movwf	((c:_flag+1)),c
  1825  006FC8  6E0C               	movlw	low(0)
  1826  006FCA  0E00               	movwf	((c:_flag)),c
  1827  006FCC  6E0B               	goto	l78
  1828  006FCE  EFDF  F03E         	
  1829                           l2126:
  1830  006FD2                     	goto	l78
  1831  006FD2  EFDF  F03E         	
  1832                           l104:
  1833  006FD6                     	
  1834                           l2128:
  1835  006FD6                     	call	_delay	;wreg free
  1836  006FD6  ECFF  F034         	
  1837                           l2130:
  1838  006FDA                     		decf	((c:_flag)),c,w
  1839  006FDA  040B               iorwf	((c:_flag+1)),c,w
  1840  006FDC  100C               	btfss	status,2
  1841  006FDE  A4D8               	goto	u1561
  1842  006FE0  EFF4  F037         	goto	u1560
  1843  006FE4  EFF6  F037         
  1844                           u1561:
  1845  006FE8                     	goto	l2136
  1846  006FE8  EFFE  F037         u1560:
  1847  006FEC                     	
  1848                           l2132:
  1849  006FEC                     	movlw	high(0)
  1850  006FEC  0E00               	movwf	((c:_flag+1)),c
  1851  006FEE  6E0C               	movlw	low(0)
  1852  006FF0  0E00               	movwf	((c:_flag)),c
  1853  006FF2  6E0B               	goto	l78
  1854  006FF4  EFDF  F03E         	
  1855                           l2134:
  1856  006FF8                     	goto	l78
  1857  006FF8  EFDF  F03E         	
  1858                           l105:
  1859  006FFC                     	line	144
  1860                           	
  1861                           l2136:
  1862  006FFC                     ;motor2.c: 144:     So(); delay();if(flag == 1){flag = 0;return;}
  1863                           	call	_Quiet	;wreg free
  1864  006FFC  EC7A  F034         	call	_delay	;wreg free
  1865  007000  ECFF  F034         	
  1866                           l2138:
  1867  007004                     		decf	((c:_flag)),c,w
  1868  007004  040B               iorwf	((c:_flag+1)),c,w
  1869  007006  100C               	btfss	status,2
  1870  007008  A4D8               	goto	u1571
  1871  00700A  EF09  F038         	goto	u1570
  1872  00700E  EF0B  F038         
  1873                           u1571:
  1874  007012                     	goto	l2144
  1875  007012  EF13  F038         u1570:
  1876  007016                     	
  1877                           l2140:
  1878  007016                     	movlw	high(0)
  1879  007016  0E00               	movwf	((c:_flag+1)),c
  1880  007018  6E0C               	movlw	low(0)
  1881  00701A  0E00               	movwf	((c:_flag)),c
  1882  00701C  6E0B               	goto	l78
  1883  00701E  EFDF  F03E         	
  1884                           l2142:
  1885  007022                     	goto	l78
  1886  007022  EFDF  F03E         	
  1887                           l106:
  1888  007026                     	line	145
  1889                           	
  1890                           l2144:
  1891  007026                     ;motor2.c: 145:     Quiet(); delay();if(flag == 1){flag = 0;return;}
  1892                           	call	_So	;wreg free
  1893  007026  ECD5  F034         	call	_delay	;wreg free
  1894  00702A  ECFF  F034         	
  1895                           l2146:
  1896  00702E                     		decf	((c:_flag)),c,w
  1897  00702E  040B               iorwf	((c:_flag+1)),c,w
  1898  007030  100C               	btfss	status,2
  1899  007032  A4D8               	goto	u1581
  1900  007034  EF1E  F038         	goto	u1580
  1901  007038  EF20  F038         
  1902                           u1581:
  1903  00703C                     	goto	l2152
  1904  00703C  EF28  F038         u1580:
  1905  007040                     	
  1906                           l2148:
  1907  007040                     	movlw	high(0)
  1908  007040  0E00               	movwf	((c:_flag+1)),c
  1909  007042  6E0C               	movlw	low(0)
  1910  007044  0E00               	movwf	((c:_flag)),c
  1911  007046  6E0B               	goto	l78
  1912  007048  EFDF  F03E         	
  1913                           l2150:
  1914  00704C                     	goto	l78
  1915  00704C  EFDF  F03E         	
  1916                           l107:
  1917  007050                     	line	146
  1918                           	
  1919                           l2152:
  1920  007050                     ;motor2.c: 146:     Mi(); delay();if(flag == 1){flag = 0;return;} delay();if(flag == 1){
                                 flag = 0;return;}delay();if(flag == 1){flag = 0;return;} delay();if(flag == 1){flag = 0;
                                 return;}
  1921                           	call	_Quiet	;wreg free
  1922  007050  EC7A  F034         	call	_delay	;wreg free
  1923  007054  ECFF  F034         	
  1924                           l2154:
  1925  007058                     		decf	((c:_flag)),c,w
  1926  007058  040B               iorwf	((c:_flag+1)),c,w
  1927  00705A  100C               	btfss	status,2
  1928  00705C  A4D8               	goto	u1591
  1929  00705E  EF33  F038         	goto	u1590
  1930  007062  EF35  F038         
  1931                           u1591:
  1932  007066                     	goto	l2160
  1933  007066  EF3D  F038         u1590:
  1934  00706A                     	
  1935                           l2156:
  1936  00706A                     	movlw	high(0)
  1937  00706A  0E00               	movwf	((c:_flag+1)),c
  1938  00706C  6E0C               	movlw	low(0)
  1939  00706E  0E00               	movwf	((c:_flag)),c
  1940  007070  6E0B               	goto	l78
  1941  007072  EFDF  F03E         	
  1942                           l2158:
  1943  007076                     	goto	l78
  1944  007076  EFDF  F03E         	
  1945                           l108:
  1946  00707A                     	line	147
  1947                           	
  1948                           l2160:
  1949  00707A                     ;motor2.c: 147:     Quiet(); delay();if(flag == 1){flag = 0;return;}
  1950                           	call	_Mi	;wreg free
  1951  00707A  ECB3  F034         	call	_delay	;wreg free
  1952  00707E  ECFF  F034         	
  1953                           l2162:
  1954  007082                     		decf	((c:_flag)),c,w
  1955  007082  040B               iorwf	((c:_flag+1)),c,w
  1956  007084  100C               	btfss	status,2
  1957  007086  A4D8               	goto	u1601
  1958  007088  EF48  F038         	goto	u1600
  1959  00708C  EF4A  F038         
  1960                           u1601:
  1961  007090                     	goto	l2168
  1962  007090  EF52  F038         u1600:
  1963  007094                     	
  1964                           l2164:
  1965  007094                     	movlw	high(0)
  1966  007094  0E00               	movwf	((c:_flag+1)),c
  1967  007096  6E0C               	movlw	low(0)
  1968  007098  0E00               	movwf	((c:_flag)),c
  1969  00709A  6E0B               	goto	l78
  1970  00709C  EFDF  F03E         	
  1971                           l2166:
  1972  0070A0                     	goto	l78
  1973  0070A0  EFDF  F03E         	
  1974                           l109:
  1975  0070A4                     	line	148
  1976                           	
  1977                           l2168:
  1978  0070A4                     ;motor2.c: 148:     Re(); delay();if(flag == 1){flag = 0;return;}
  1979                           	call	_Quiet	;wreg free
  1980  0070A4  EC7A  F034         	call	_delay	;wreg free
  1981  0070A8  ECFF  F034         	
  1982                           l2170:
  1983  0070AC                     		decf	((c:_flag)),c,w
  1984  0070AC  040B               iorwf	((c:_flag+1)),c,w
  1985  0070AE  100C               	btfss	status,2
  1986  0070B0  A4D8               	goto	u1611
  1987  0070B2  EF5D  F038         	goto	u1610
  1988  0070B6  EF5F  F038         
  1989                           u1611:
  1990  0070BA                     	goto	l2176
  1991  0070BA  EF67  F038         u1610:
  1992  0070BE                     	
  1993                           l2172:
  1994  0070BE                     	movlw	high(0)
  1995  0070BE  0E00               	movwf	((c:_flag+1)),c
  1996  0070C0  6E0C               	movlw	low(0)
  1997  0070C2  0E00               	movwf	((c:_flag)),c
  1998  0070C4  6E0B               	goto	l78
  1999  0070C6  EFDF  F03E         	
  2000                           l2174:
  2001  0070CA                     	goto	l78
  2002  0070CA  EFDF  F03E         	
  2003                           l110:
  2004  0070CE                     	line	149
  2005                           	
  2006                           l2176:
  2007  0070CE                     ;motor2.c: 149:     Quiet(); delay();if(flag == 1){flag = 0;return;}
  2008                           	call	_Mi	;wreg free
  2009  0070CE  ECB3  F034         	call	_delay	;wreg free
  2010  0070D2  ECFF  F034         	
  2011                           l2178:
  2012  0070D6                     		decf	((c:_flag)),c,w
  2013  0070D6  040B               iorwf	((c:_flag+1)),c,w
  2014  0070D8  100C               	btfss	status,2
  2015  0070DA  A4D8               	goto	u1621
  2016  0070DC  EF72  F038         	goto	u1620
  2017  0070E0  EF74  F038         
  2018                           u1621:
  2019  0070E4                     	goto	l2184
  2020  0070E4  EF7C  F038         u1620:
  2021  0070E8                     	
  2022                           l2180:
  2023  0070E8                     	movlw	high(0)
  2024  0070E8  0E00               	movwf	((c:_flag+1)),c
  2025  0070EA  6E0C               	movlw	low(0)
  2026  0070EC  0E00               	movwf	((c:_flag)),c
  2027  0070EE  6E0B               	goto	l78
  2028  0070F0  EFDF  F03E         	
  2029                           l2182:
  2030  0070F4                     	goto	l78
  2031  0070F4  EFDF  F03E         	
  2032                           l111:
  2033  0070F8                     	
  2034                           l2184:
  2035  0070F8                     	call	_delay	;wreg free
  2036  0070F8  ECFF  F034         	
  2037                           l2186:
  2038  0070FC                     		decf	((c:_flag)),c,w
  2039  0070FC  040B               iorwf	((c:_flag+1)),c,w
  2040  0070FE  100C               	btfss	status,2
  2041  007100  A4D8               	goto	u1631
  2042  007102  EF85  F038         	goto	u1630
  2043  007106  EF87  F038         
  2044                           u1631:
  2045  00710A                     	goto	l2192
  2046  00710A  EF8F  F038         u1630:
  2047  00710E                     	
  2048                           l2188:
  2049  00710E                     	movlw	high(0)
  2050  00710E  0E00               	movwf	((c:_flag+1)),c
  2051  007110  6E0C               	movlw	low(0)
  2052  007112  0E00               	movwf	((c:_flag)),c
  2053  007114  6E0B               	goto	l78
  2054  007116  EFDF  F03E         	
  2055                           l2190:
  2056  00711A                     	goto	l78
  2057  00711A  EFDF  F03E         	
  2058                           l112:
  2059  00711E                     	line	150
  2060                           	
  2061                           l2192:
  2062  00711E                     ;motor2.c: 150:     Re(); delay();if(flag == 1){flag = 0;return;}
  2063                           	call	_Quiet	;wreg free
  2064  00711E  EC7A  F034         	call	_delay	;wreg free
  2065  007122  ECFF  F034         	
  2066                           l2194:
  2067  007126                     		decf	((c:_flag)),c,w
  2068  007126  040B               iorwf	((c:_flag+1)),c,w
  2069  007128  100C               	btfss	status,2
  2070  00712A  A4D8               	goto	u1641
  2071  00712C  EF9A  F038         	goto	u1640
  2072  007130  EF9C  F038         
  2073                           u1641:
  2074  007134                     	goto	l2200
  2075  007134  EFA4  F038         u1640:
  2076  007138                     	
  2077                           l2196:
  2078  007138                     	movlw	high(0)
  2079  007138  0E00               	movwf	((c:_flag+1)),c
  2080  00713A  6E0C               	movlw	low(0)
  2081  00713C  0E00               	movwf	((c:_flag)),c
  2082  00713E  6E0B               	goto	l78
  2083  007140  EFDF  F03E         	
  2084                           l2198:
  2085  007144                     	goto	l78
  2086  007144  EFDF  F03E         	
  2087                           l113:
  2088  007148                     	line	151
  2089                           	
  2090                           l2200:
  2091  007148                     ;motor2.c: 151:     Quiet(); delay();if(flag == 1){flag = 0;return;}
  2092                           	call	_Fa	;wreg free
  2093  007148  ECA2  F034         	call	_delay	;wreg free
  2094  00714C  ECFF  F034         	
  2095                           l2202:
  2096  007150                     		decf	((c:_flag)),c,w
  2097  007150  040B               iorwf	((c:_flag+1)),c,w
  2098  007152  100C               	btfss	status,2
  2099  007154  A4D8               	goto	u1651
  2100  007156  EFAF  F038         	goto	u1650
  2101  00715A  EFB1  F038         
  2102                           u1651:
  2103  00715E                     	goto	l2208
  2104  00715E  EFB9  F038         u1650:
  2105  007162                     	
  2106                           l2204:
  2107  007162                     	movlw	high(0)
  2108  007162  0E00               	movwf	((c:_flag+1)),c
  2109  007164  6E0C               	movlw	low(0)
  2110  007166  0E00               	movwf	((c:_flag)),c
  2111  007168  6E0B               	goto	l78
  2112  00716A  EFDF  F03E         	
  2113                           l2206:
  2114  00716E                     	goto	l78
  2115  00716E  EFDF  F03E         	
  2116                           l114:
  2117  007172                     	line	152
  2118                           	
  2119                           l2208:
  2120  007172                     ;motor2.c: 152:     Re(); delay();if(flag == 1){flag = 0;return;}
  2121                           	call	_Quiet	;wreg free
  2122  007172  EC7A  F034         	call	_delay	;wreg free
  2123  007176  ECFF  F034         	
  2124                           l2210:
  2125  00717A                     		decf	((c:_flag)),c,w
  2126  00717A  040B               iorwf	((c:_flag+1)),c,w
  2127  00717C  100C               	btfss	status,2
  2128  00717E  A4D8               	goto	u1661
  2129  007180  EFC4  F038         	goto	u1660
  2130  007184  EFC6  F038         
  2131                           u1661:
  2132  007188                     	goto	l2216
  2133  007188  EFCE  F038         u1660:
  2134  00718C                     	
  2135                           l2212:
  2136  00718C                     	movlw	high(0)
  2137  00718C  0E00               	movwf	((c:_flag+1)),c
  2138  00718E  6E0C               	movlw	low(0)
  2139  007190  0E00               	movwf	((c:_flag)),c
  2140  007192  6E0B               	goto	l78
  2141  007194  EFDF  F03E         	
  2142                           l2214:
  2143  007198                     	goto	l78
  2144  007198  EFDF  F03E         	
  2145                           l115:
  2146  00719C                     	line	153
  2147                           	
  2148                           l2216:
  2149  00719C                     ;motor2.c: 153:     Quiet(); delay();if(flag == 1){flag = 0;return;}
  2150                           	call	_Re	;wreg free
  2151  00719C  ECC4  F034         	call	_delay	;wreg free
  2152  0071A0  ECFF  F034         	
  2153                           l2218:
  2154  0071A4                     		decf	((c:_flag)),c,w
  2155  0071A4  040B               iorwf	((c:_flag+1)),c,w
  2156  0071A6  100C               	btfss	status,2
  2157  0071A8  A4D8               	goto	u1671
  2158  0071AA  EFD9  F038         	goto	u1670
  2159  0071AE  EFDB  F038         
  2160                           u1671:
  2161  0071B2                     	goto	l2224
  2162  0071B2  EFE3  F038         u1670:
  2163  0071B6                     	
  2164                           l2220:
  2165  0071B6                     	movlw	high(0)
  2166  0071B6  0E00               	movwf	((c:_flag+1)),c
  2167  0071B8  6E0C               	movlw	low(0)
  2168  0071BA  0E00               	movwf	((c:_flag)),c
  2169  0071BC  6E0B               	goto	l78
  2170  0071BE  EFDF  F03E         	
  2171                           l2222:
  2172  0071C2                     	goto	l78
  2173  0071C2  EFDF  F03E         	
  2174                           l116:
  2175  0071C6                     	line	154
  2176                           	
  2177                           l2224:
  2178  0071C6                     ;motor2.c: 154:     Re(); delay();if(flag == 1){flag = 0;return;}
  2179                           	call	_Quiet	;wreg free
  2180  0071C6  EC7A  F034         	call	_delay	;wreg free
  2181  0071CA  ECFF  F034         	
  2182                           l2226:
  2183  0071CE                     		decf	((c:_flag)),c,w
  2184  0071CE  040B               iorwf	((c:_flag+1)),c,w
  2185  0071D0  100C               	btfss	status,2
  2186  0071D2  A4D8               	goto	u1681
  2187  0071D4  EFEE  F038         	goto	u1680
  2188  0071D8  EFF0  F038         
  2189                           u1681:
  2190  0071DC                     	goto	l2232
  2191  0071DC  EFF8  F038         u1680:
  2192  0071E0                     	
  2193                           l2228:
  2194  0071E0                     	movlw	high(0)
  2195  0071E0  0E00               	movwf	((c:_flag+1)),c
  2196  0071E2  6E0C               	movlw	low(0)
  2197  0071E4  0E00               	movwf	((c:_flag)),c
  2198  0071E6  6E0B               	goto	l78
  2199  0071E8  EFDF  F03E         	
  2200                           l2230:
  2201  0071EC                     	goto	l78
  2202  0071EC  EFDF  F03E         	
  2203                           l117:
  2204  0071F0                     	line	155
  2205                           	
  2206                           l2232:
  2207  0071F0                     ;motor2.c: 155:     Quiet(); delay();if(flag == 1){flag = 0;return;}
  2208                           	call	_Re	;wreg free
  2209  0071F0  ECC4  F034         	call	_delay	;wreg free
  2210  0071F4  ECFF  F034         	
  2211                           l2234:
  2212  0071F8                     		decf	((c:_flag)),c,w
  2213  0071F8  040B               iorwf	((c:_flag+1)),c,w
  2214  0071FA  100C               	btfss	status,2
  2215  0071FC  A4D8               	goto	u1691
  2216  0071FE  EF03  F039         	goto	u1690
  2217  007202  EF05  F039         
  2218                           u1691:
  2219  007206                     	goto	l2240
  2220  007206  EF0D  F039         u1690:
  2221  00720A                     	
  2222                           l2236:
  2223  00720A                     	movlw	high(0)
  2224  00720A  0E00               	movwf	((c:_flag+1)),c
  2225  00720C  6E0C               	movlw	low(0)
  2226  00720E  0E00               	movwf	((c:_flag)),c
  2227  007210  6E0B               	goto	l78
  2228  007212  EFDF  F03E         	
  2229                           l2238:
  2230  007216                     	goto	l78
  2231  007216  EFDF  F03E         	
  2232                           l118:
  2233  00721A                     	
  2234                           l2240:
  2235  00721A                     	call	_delay	;wreg free
  2236  00721A  ECFF  F034         	
  2237                           l2242:
  2238  00721E                     		decf	((c:_flag)),c,w
  2239  00721E  040B               iorwf	((c:_flag+1)),c,w
  2240  007220  100C               	btfss	status,2
  2241  007222  A4D8               	goto	u1701
  2242  007224  EF16  F039         	goto	u1700
  2243  007228  EF18  F039         
  2244                           u1701:
  2245  00722C                     	goto	l2248
  2246  00722C  EF20  F039         u1700:
  2247  007230                     	
  2248                           l2244:
  2249  007230                     	movlw	high(0)
  2250  007230  0E00               	movwf	((c:_flag+1)),c
  2251  007232  6E0C               	movlw	low(0)
  2252  007234  0E00               	movwf	((c:_flag)),c
  2253  007236  6E0B               	goto	l78
  2254  007238  EFDF  F03E         	
  2255                           l2246:
  2256  00723C                     	goto	l78
  2257  00723C  EFDF  F03E         	
  2258                           l119:
  2259  007240                     	line	156
  2260                           	
  2261                           l2248:
  2262  007240                     ;motor2.c: 156:     Re(); delay();if(flag == 1){flag = 0;return;}
  2263                           	call	_Quiet	;wreg free
  2264  007240  EC7A  F034         	call	_delay	;wreg free
  2265  007244  ECFF  F034         	
  2266                           l2250:
  2267  007248                     		decf	((c:_flag)),c,w
  2268  007248  040B               iorwf	((c:_flag+1)),c,w
  2269  00724A  100C               	btfss	status,2
  2270  00724C  A4D8               	goto	u1711
  2271  00724E  EF2B  F039         	goto	u1710
  2272  007252  EF2D  F039         
  2273                           u1711:
  2274  007256                     	goto	l2256
  2275  007256  EF35  F039         u1710:
  2276  00725A                     	
  2277                           l2252:
  2278  00725A                     	movlw	high(0)
  2279  00725A  0E00               	movwf	((c:_flag+1)),c
  2280  00725C  6E0C               	movlw	low(0)
  2281  00725E  0E00               	movwf	((c:_flag)),c
  2282  007260  6E0B               	goto	l78
  2283  007262  EFDF  F03E         	
  2284                           l2254:
  2285  007266                     	goto	l78
  2286  007266  EFDF  F03E         	
  2287                           l120:
  2288  00726A                     	line	157
  2289                           	
  2290                           l2256:
  2291  00726A                     ;motor2.c: 157:     Quiet(); delay();if(flag == 1){flag = 0;return;}
  2292                           	call	_Do	;wreg free
  2293  00726A  EC91  F034         	call	_delay	;wreg free
  2294  00726E  ECFF  F034         	
  2295                           l2258:
  2296  007272                     		decf	((c:_flag)),c,w
  2297  007272  040B               iorwf	((c:_flag+1)),c,w
  2298  007274  100C               	btfss	status,2
  2299  007276  A4D8               	goto	u1721
  2300  007278  EF40  F039         	goto	u1720
  2301  00727C  EF42  F039         
  2302                           u1721:
  2303  007280                     	goto	l2264
  2304  007280  EF4A  F039         u1720:
  2305  007284                     	
  2306                           l2260:
  2307  007284                     	movlw	high(0)
  2308  007284  0E00               	movwf	((c:_flag+1)),c
  2309  007286  6E0C               	movlw	low(0)
  2310  007288  0E00               	movwf	((c:_flag)),c
  2311  00728A  6E0B               	goto	l78
  2312  00728C  EFDF  F03E         	
  2313                           l2262:
  2314  007290                     	goto	l78
  2315  007290  EFDF  F03E         	
  2316                           l121:
  2317  007294                     	line	158
  2318                           	
  2319                           l2264:
  2320  007294                     ;motor2.c: 158:     Mi(); delay();if(flag == 1){flag = 0;return;}
  2321                           	call	_Quiet	;wreg free
  2322  007294  EC7A  F034         	call	_delay	;wreg free
  2323  007298  ECFF  F034         	
  2324                           l2266:
  2325  00729C                     		decf	((c:_flag)),c,w
  2326  00729C  040B               iorwf	((c:_flag+1)),c,w
  2327  00729E  100C               	btfss	status,2
  2328  0072A0  A4D8               	goto	u1731
  2329  0072A2  EF55  F039         	goto	u1730
  2330  0072A6  EF57  F039         
  2331                           u1731:
  2332  0072AA                     	goto	l2272
  2333  0072AA  EF5F  F039         u1730:
  2334  0072AE                     	
  2335                           l2268:
  2336  0072AE                     	movlw	high(0)
  2337  0072AE  0E00               	movwf	((c:_flag+1)),c
  2338  0072B0  6E0C               	movlw	low(0)
  2339  0072B2  0E00               	movwf	((c:_flag)),c
  2340  0072B4  6E0B               	goto	l78
  2341  0072B6  EFDF  F03E         	
  2342                           l2270:
  2343  0072BA                     	goto	l78
  2344  0072BA  EFDF  F03E         	
  2345                           l122:
  2346  0072BE                     	line	159
  2347                           	
  2348                           l2272:
  2349  0072BE                     ;motor2.c: 159:     Quiet(); delay();if(flag == 1){flag = 0;return;}
  2350                           	call	_Mi	;wreg free
  2351  0072BE  ECB3  F034         	call	_delay	;wreg free
  2352  0072C2  ECFF  F034         	
  2353                           l2274:
  2354  0072C6                     		decf	((c:_flag)),c,w
  2355  0072C6  040B               iorwf	((c:_flag+1)),c,w
  2356  0072C8  100C               	btfss	status,2
  2357  0072CA  A4D8               	goto	u1741
  2358  0072CC  EF6A  F039         	goto	u1740
  2359  0072D0  EF6C  F039         
  2360                           u1741:
  2361  0072D4                     	goto	l2280
  2362  0072D4  EF74  F039         u1740:
  2363  0072D8                     	
  2364                           l2276:
  2365  0072D8                     	movlw	high(0)
  2366  0072D8  0E00               	movwf	((c:_flag+1)),c
  2367  0072DA  6E0C               	movlw	low(0)
  2368  0072DC  0E00               	movwf	((c:_flag)),c
  2369  0072DE  6E0B               	goto	l78
  2370  0072E0  EFDF  F03E         	
  2371                           l2278:
  2372  0072E4                     	goto	l78
  2373  0072E4  EFDF  F03E         	
  2374                           l123:
  2375  0072E8                     	line	160
  2376                           	
  2377                           l2280:
  2378  0072E8                     ;motor2.c: 160:     Fa(); delay();if(flag == 1){flag = 0;return;}delay();if(flag == 1){f
                                 lag = 0;return;}
  2379                           	call	_Quiet	;wreg free
  2380  0072E8  EC7A  F034         	call	_delay	;wreg free
  2381  0072EC  ECFF  F034         	
  2382                           l2282:
  2383  0072F0                     		decf	((c:_flag)),c,w
  2384  0072F0  040B               iorwf	((c:_flag+1)),c,w
  2385  0072F2  100C               	btfss	status,2
  2386  0072F4  A4D8               	goto	u1751
  2387  0072F6  EF7F  F039         	goto	u1750
  2388  0072FA  EF81  F039         
  2389                           u1751:
  2390  0072FE                     	goto	l2288
  2391  0072FE  EF89  F039         u1750:
  2392  007302                     	
  2393                           l2284:
  2394  007302                     	movlw	high(0)
  2395  007302  0E00               	movwf	((c:_flag+1)),c
  2396  007304  6E0C               	movlw	low(0)
  2397  007306  0E00               	movwf	((c:_flag)),c
  2398  007308  6E0B               	goto	l78
  2399  00730A  EFDF  F03E         	
  2400                           l2286:
  2401  00730E                     	goto	l78
  2402  00730E  EFDF  F03E         	
  2403                           l124:
  2404  007312                     	line	161
  2405                           	
  2406                           l2288:
  2407  007312                     ;motor2.c: 161:     Quiet(); delay();if(flag == 1){flag = 0;return;}
  2408                           	call	_So	;wreg free
  2409  007312  ECD5  F034         	call	_delay	;wreg free
  2410  007316  ECFF  F034         	
  2411                           l2290:
  2412  00731A                     		decf	((c:_flag)),c,w
  2413  00731A  040B               iorwf	((c:_flag+1)),c,w
  2414  00731C  100C               	btfss	status,2
  2415  00731E  A4D8               	goto	u1761
  2416  007320  EF94  F039         	goto	u1760
  2417  007324  EF96  F039         
  2418                           u1761:
  2419  007328                     	goto	l2296
  2420  007328  EF9E  F039         u1760:
  2421  00732C                     	
  2422                           l2292:
  2423  00732C                     	movlw	high(0)
  2424  00732C  0E00               	movwf	((c:_flag+1)),c
  2425  00732E  6E0C               	movlw	low(0)
  2426  007330  0E00               	movwf	((c:_flag)),c
  2427  007332  6E0B               	goto	l78
  2428  007334  EFDF  F03E         	
  2429                           l2294:
  2430  007338                     	goto	l78
  2431  007338  EFDF  F03E         	
  2432                           l125:
  2433  00733C                     	line	162
  2434                           	
  2435                           l2296:
  2436  00733C                     ;motor2.c: 162:     Mi(); delay();if(flag == 1){flag = 0;return;}
  2437                           	call	_Quiet	;wreg free
  2438  00733C  EC7A  F034         	call	_delay	;wreg free
  2439  007340  ECFF  F034         	
  2440                           l2298:
  2441  007344                     		decf	((c:_flag)),c,w
  2442  007344  040B               iorwf	((c:_flag+1)),c,w
  2443  007346  100C               	btfss	status,2
  2444  007348  A4D8               	goto	u1771
  2445  00734A  EFA9  F039         	goto	u1770
  2446  00734E  EFAB  F039         
  2447                           u1771:
  2448  007352                     	goto	l2304
  2449  007352  EFB3  F039         u1770:
  2450  007356                     	
  2451                           l2300:
  2452  007356                     	movlw	high(0)
  2453  007356  0E00               	movwf	((c:_flag+1)),c
  2454  007358  6E0C               	movlw	low(0)
  2455  00735A  0E00               	movwf	((c:_flag)),c
  2456  00735C  6E0B               	goto	l78
  2457  00735E  EFDF  F03E         	
  2458                           l2302:
  2459  007362                     	goto	l78
  2460  007362  EFDF  F03E         	
  2461                           l126:
  2462  007366                     	line	163
  2463                           	
  2464                           l2304:
  2465  007366                     ;motor2.c: 163:     Quiet(); delay();if(flag == 1){flag = 0;return;}
  2466                           	call	_So	;wreg free
  2467  007366  ECD5  F034         	call	_delay	;wreg free
  2468  00736A  ECFF  F034         	
  2469                           l2306:
  2470  00736E                     		decf	((c:_flag)),c,w
  2471  00736E  040B               iorwf	((c:_flag+1)),c,w
  2472  007370  100C               	btfss	status,2
  2473  007372  A4D8               	goto	u1781
  2474  007374  EFBE  F039         	goto	u1780
  2475  007378  EFC0  F039         
  2476                           u1781:
  2477  00737C                     	goto	l2312
  2478  00737C  EFC8  F039         u1780:
  2479  007380                     	
  2480                           l2308:
  2481  007380                     	movlw	high(0)
  2482  007380  0E00               	movwf	((c:_flag+1)),c
  2483  007382  6E0C               	movlw	low(0)
  2484  007384  0E00               	movwf	((c:_flag)),c
  2485  007386  6E0B               	goto	l78
  2486  007388  EFDF  F03E         	
  2487                           l2310:
  2488  00738C                     	goto	l78
  2489  00738C  EFDF  F03E         	
  2490                           l127:
  2491  007390                     	line	164
  2492                           	
  2493                           l2312:
  2494  007390                     ;motor2.c: 164:     Mi(); delay();if(flag == 1){flag = 0;return;}
  2495                           	call	_Quiet	;wreg free
  2496  007390  EC7A  F034         	call	_delay	;wreg free
  2497  007394  ECFF  F034         	
  2498                           l2314:
  2499  007398                     		decf	((c:_flag)),c,w
  2500  007398  040B               iorwf	((c:_flag+1)),c,w
  2501  00739A  100C               	btfss	status,2
  2502  00739C  A4D8               	goto	u1791
  2503  00739E  EFD3  F039         	goto	u1790
  2504  0073A2  EFD5  F039         
  2505                           u1791:
  2506  0073A6                     	goto	l2320
  2507  0073A6  EFDD  F039         u1790:
  2508  0073AA                     	
  2509                           l2316:
  2510  0073AA                     	movlw	high(0)
  2511  0073AA  0E00               	movwf	((c:_flag+1)),c
  2512  0073AC  6E0C               	movlw	low(0)
  2513  0073AE  0E00               	movwf	((c:_flag)),c
  2514  0073B0  6E0B               	goto	l78
  2515  0073B2  EFDF  F03E         	
  2516                           l2318:
  2517  0073B6                     	goto	l78
  2518  0073B6  EFDF  F03E         	
  2519                           l128:
  2520  0073BA                     	line	165
  2521                           	
  2522                           l2320:
  2523  0073BA                     ;motor2.c: 165:     Quiet(); delay();if(flag == 1){flag = 0;return;}
  2524                           	call	_Mi	;wreg free
  2525  0073BA  ECB3  F034         	call	_delay	;wreg free
  2526  0073BE  ECFF  F034         	
  2527                           l2322:
  2528  0073C2                     		decf	((c:_flag)),c,w
  2529  0073C2  040B               iorwf	((c:_flag+1)),c,w
  2530  0073C4  100C               	btfss	status,2
  2531  0073C6  A4D8               	goto	u1801
  2532  0073C8  EFE8  F039         	goto	u1800
  2533  0073CC  EFEA  F039         
  2534                           u1801:
  2535  0073D0                     	goto	l2328
  2536  0073D0  EFF2  F039         u1800:
  2537  0073D4                     	
  2538                           l2324:
  2539  0073D4                     	movlw	high(0)
  2540  0073D4  0E00               	movwf	((c:_flag+1)),c
  2541  0073D6  6E0C               	movlw	low(0)
  2542  0073D8  0E00               	movwf	((c:_flag)),c
  2543  0073DA  6E0B               	goto	l78
  2544  0073DC  EFDF  F03E         	
  2545                           l2326:
  2546  0073E0                     	goto	l78
  2547  0073E0  EFDF  F03E         	
  2548                           l129:
  2549  0073E4                     	
  2550                           l2328:
  2551  0073E4                     	call	_delay	;wreg free
  2552  0073E4  ECFF  F034         	
  2553                           l2330:
  2554  0073E8                     		decf	((c:_flag)),c,w
  2555  0073E8  040B               iorwf	((c:_flag+1)),c,w
  2556  0073EA  100C               	btfss	status,2
  2557  0073EC  A4D8               	goto	u1811
  2558  0073EE  EFFB  F039         	goto	u1810
  2559  0073F2  EFFD  F039         
  2560                           u1811:
  2561  0073F6                     	goto	l2336
  2562  0073F6  EF05  F03A         u1810:
  2563  0073FA                     	
  2564                           l2332:
  2565  0073FA                     	movlw	high(0)
  2566  0073FA  0E00               	movwf	((c:_flag+1)),c
  2567  0073FC  6E0C               	movlw	low(0)
  2568  0073FE  0E00               	movwf	((c:_flag)),c
  2569  007400  6E0B               	goto	l78
  2570  007402  EFDF  F03E         	
  2571                           l2334:
  2572  007406                     	goto	l78
  2573  007406  EFDF  F03E         	
  2574                           l130:
  2575  00740A                     	
  2576                           l2336:
  2577  00740A                     	call	_delay	;wreg free
  2578  00740A  ECFF  F034         	
  2579                           l2338:
  2580  00740E                     		decf	((c:_flag)),c,w
  2581  00740E  040B               iorwf	((c:_flag+1)),c,w
  2582  007410  100C               	btfss	status,2
  2583  007412  A4D8               	goto	u1821
  2584  007414  EF0E  F03A         	goto	u1820
  2585  007418  EF10  F03A         
  2586                           u1821:
  2587  00741C                     	goto	l2344
  2588  00741C  EF18  F03A         u1820:
  2589  007420                     	
  2590                           l2340:
  2591  007420                     	movlw	high(0)
  2592  007420  0E00               	movwf	((c:_flag+1)),c
  2593  007422  6E0C               	movlw	low(0)
  2594  007424  0E00               	movwf	((c:_flag)),c
  2595  007426  6E0B               	goto	l78
  2596  007428  EFDF  F03E         	
  2597                           l2342:
  2598  00742C                     	goto	l78
  2599  00742C  EFDF  F03E         	
  2600                           l131:
  2601  007430                     	
  2602                           l2344:
  2603  007430                     	call	_delay	;wreg free
  2604  007430  ECFF  F034         	
  2605                           l2346:
  2606  007434                     		decf	((c:_flag)),c,w
  2607  007434  040B               iorwf	((c:_flag+1)),c,w
  2608  007436  100C               	btfss	status,2
  2609  007438  A4D8               	goto	u1831
  2610  00743A  EF21  F03A         	goto	u1830
  2611  00743E  EF23  F03A         
  2612                           u1831:
  2613  007442                     	goto	l2352
  2614  007442  EF2B  F03A         u1830:
  2615  007446                     	
  2616                           l2348:
  2617  007446                     	movlw	high(0)
  2618  007446  0E00               	movwf	((c:_flag+1)),c
  2619  007448  6E0C               	movlw	low(0)
  2620  00744A  0E00               	movwf	((c:_flag)),c
  2621  00744C  6E0B               	goto	l78
  2622  00744E  EFDF  F03E         	
  2623                           l2350:
  2624  007452                     	goto	l78
  2625  007452  EFDF  F03E         	
  2626                           l132:
  2627  007456                     	line	166
  2628                           	
  2629                           l2352:
  2630  007456                     ;motor2.c: 166:     Mi(); delay();if(flag == 1){flag = 0;return;}
  2631                           	call	_Quiet	;wreg free
  2632  007456  EC7A  F034         	call	_delay	;wreg free
  2633  00745A  ECFF  F034         	
  2634                           l2354:
  2635  00745E                     		decf	((c:_flag)),c,w
  2636  00745E  040B               iorwf	((c:_flag+1)),c,w
  2637  007460  100C               	btfss	status,2
  2638  007462  A4D8               	goto	u1841
  2639  007464  EF36  F03A         	goto	u1840
  2640  007468  EF38  F03A         
  2641                           u1841:
  2642  00746C                     	goto	l2360
  2643  00746C  EF40  F03A         u1840:
  2644  007470                     	
  2645                           l2356:
  2646  007470                     	movlw	high(0)
  2647  007470  0E00               	movwf	((c:_flag+1)),c
  2648  007472  6E0C               	movlw	low(0)
  2649  007474  0E00               	movwf	((c:_flag)),c
  2650  007476  6E0B               	goto	l78
  2651  007478  EFDF  F03E         	
  2652                           l2358:
  2653  00747C                     	goto	l78
  2654  00747C  EFDF  F03E         	
  2655                           l133:
  2656  007480                     	line	167
  2657                           	
  2658                           l2360:
  2659  007480                     ;motor2.c: 167:     Quiet(); delay();if(flag == 1){flag = 0;return;}
  2660                           	call	_Re	;wreg free
  2661  007480  ECC4  F034         	call	_delay	;wreg free
  2662  007484  ECFF  F034         	
  2663                           l2362:
  2664  007488                     		decf	((c:_flag)),c,w
  2665  007488  040B               iorwf	((c:_flag+1)),c,w
  2666  00748A  100C               	btfss	status,2
  2667  00748C  A4D8               	goto	u1851
  2668  00748E  EF4B  F03A         	goto	u1850
  2669  007492  EF4D  F03A         
  2670                           u1851:
  2671  007496                     	goto	l2368
  2672  007496  EF55  F03A         u1850:
  2673  00749A                     	
  2674                           l2364:
  2675  00749A                     	movlw	high(0)
  2676  00749A  0E00               	movwf	((c:_flag+1)),c
  2677  00749C  6E0C               	movlw	low(0)
  2678  00749E  0E00               	movwf	((c:_flag)),c
  2679  0074A0  6E0B               	goto	l78
  2680  0074A2  EFDF  F03E         	
  2681                           l2366:
  2682  0074A6                     	goto	l78
  2683  0074A6  EFDF  F03E         	
  2684                           l134:
  2685  0074AA                     	line	168
  2686                           	
  2687                           l2368:
  2688  0074AA                     ;motor2.c: 168:     Mi(); delay();if(flag == 1){flag = 0;return;}
  2689                           	call	_Quiet	;wreg free
  2690  0074AA  EC7A  F034         	call	_delay	;wreg free
  2691  0074AE  ECFF  F034         	
  2692                           l2370:
  2693  0074B2                     		decf	((c:_flag)),c,w
  2694  0074B2  040B               iorwf	((c:_flag+1)),c,w
  2695  0074B4  100C               	btfss	status,2
  2696  0074B6  A4D8               	goto	u1861
  2697  0074B8  EF60  F03A         	goto	u1860
  2698  0074BC  EF62  F03A         
  2699                           u1861:
  2700  0074C0                     	goto	l2376
  2701  0074C0  EF6A  F03A         u1860:
  2702  0074C4                     	
  2703                           l2372:
  2704  0074C4                     	movlw	high(0)
  2705  0074C4  0E00               	movwf	((c:_flag+1)),c
  2706  0074C6  6E0C               	movlw	low(0)
  2707  0074C8  0E00               	movwf	((c:_flag)),c
  2708  0074CA  6E0B               	goto	l78
  2709  0074CC  EFDF  F03E         	
  2710                           l2374:
  2711  0074D0                     	goto	l78
  2712  0074D0  EFDF  F03E         	
  2713                           l135:
  2714  0074D4                     	line	169
  2715                           	
  2716                           l2376:
  2717  0074D4                     ;motor2.c: 169:     Quiet(); delay();if(flag == 1){flag = 0;return;}
  2718                           	call	_Re	;wreg free
  2719  0074D4  ECC4  F034         	call	_delay	;wreg free
  2720  0074D8  ECFF  F034         	
  2721                           l2378:
  2722  0074DC                     		decf	((c:_flag)),c,w
  2723  0074DC  040B               iorwf	((c:_flag+1)),c,w
  2724  0074DE  100C               	btfss	status,2
  2725  0074E0  A4D8               	goto	u1871
  2726  0074E2  EF75  F03A         	goto	u1870
  2727  0074E6  EF77  F03A         
  2728                           u1871:
  2729  0074EA                     	goto	l2384
  2730  0074EA  EF7F  F03A         u1870:
  2731  0074EE                     	
  2732                           l2380:
  2733  0074EE                     	movlw	high(0)
  2734  0074EE  0E00               	movwf	((c:_flag+1)),c
  2735  0074F0  6E0C               	movlw	low(0)
  2736  0074F2  0E00               	movwf	((c:_flag)),c
  2737  0074F4  6E0B               	goto	l78
  2738  0074F6  EFDF  F03E         	
  2739                           l2382:
  2740  0074FA                     	goto	l78
  2741  0074FA  EFDF  F03E         	
  2742                           l136:
  2743  0074FE                     	line	170
  2744                           	
  2745                           l2384:
  2746  0074FE                     ;motor2.c: 170:     Mi(); delay();if(flag == 1){flag = 0;return;}
  2747                           	call	_Quiet	;wreg free
  2748  0074FE  EC7A  F034         	call	_delay	;wreg free
  2749  007502  ECFF  F034         	
  2750                           l2386:
  2751  007506                     		decf	((c:_flag)),c,w
  2752  007506  040B               iorwf	((c:_flag+1)),c,w
  2753  007508  100C               	btfss	status,2
  2754  00750A  A4D8               	goto	u1881
  2755  00750C  EF8A  F03A         	goto	u1880
  2756  007510  EF8C  F03A         
  2757                           u1881:
  2758  007514                     	goto	l2392
  2759  007514  EF94  F03A         u1880:
  2760  007518                     	
  2761                           l2388:
  2762  007518                     	movlw	high(0)
  2763  007518  0E00               	movwf	((c:_flag+1)),c
  2764  00751A  6E0C               	movlw	low(0)
  2765  00751C  0E00               	movwf	((c:_flag)),c
  2766  00751E  6E0B               	goto	l78
  2767  007520  EFDF  F03E         	
  2768                           l2390:
  2769  007524                     	goto	l78
  2770  007524  EFDF  F03E         	
  2771                           l137:
  2772  007528                     	line	171
  2773                           	
  2774                           l2392:
  2775  007528                     ;motor2.c: 171:     Quiet(); delay();if(flag == 1){flag = 0;return;}
  2776                           	call	_Re	;wreg free
  2777  007528  ECC4  F034         	call	_delay	;wreg free
  2778  00752C  ECFF  F034         	
  2779                           l2394:
  2780  007530                     		decf	((c:_flag)),c,w
  2781  007530  040B               iorwf	((c:_flag+1)),c,w
  2782  007532  100C               	btfss	status,2
  2783  007534  A4D8               	goto	u1891
  2784  007536  EF9F  F03A         	goto	u1890
  2785  00753A  EFA1  F03A         
  2786                           u1891:
  2787  00753E                     	goto	l2400
  2788  00753E  EFA9  F03A         u1890:
  2789  007542                     	
  2790                           l2396:
  2791  007542                     	movlw	high(0)
  2792  007542  0E00               	movwf	((c:_flag+1)),c
  2793  007544  6E0C               	movlw	low(0)
  2794  007546  0E00               	movwf	((c:_flag)),c
  2795  007548  6E0B               	goto	l78
  2796  00754A  EFDF  F03E         	
  2797                           l2398:
  2798  00754E                     	goto	l78
  2799  00754E  EFDF  F03E         	
  2800                           l138:
  2801  007552                     	line	172
  2802                           	
  2803                           l2400:
  2804  007552                     ;motor2.c: 172:     Fa(); delay();if(flag == 1){flag = 0;return;}
  2805                           	call	_Quiet	;wreg free
  2806  007552  EC7A  F034         	call	_delay	;wreg free
  2807  007556  ECFF  F034         	
  2808                           l2402:
  2809  00755A                     		decf	((c:_flag)),c,w
  2810  00755A  040B               iorwf	((c:_flag+1)),c,w
  2811  00755C  100C               	btfss	status,2
  2812  00755E  A4D8               	goto	u1901
  2813  007560  EFB4  F03A         	goto	u1900
  2814  007564  EFB6  F03A         
  2815                           u1901:
  2816  007568                     	goto	l2408
  2817  007568  EFBE  F03A         u1900:
  2818  00756C                     	
  2819                           l2404:
  2820  00756C                     	movlw	high(0)
  2821  00756C  0E00               	movwf	((c:_flag+1)),c
  2822  00756E  6E0C               	movlw	low(0)
  2823  007570  0E00               	movwf	((c:_flag)),c
  2824  007572  6E0B               	goto	l78
  2825  007574  EFDF  F03E         	
  2826                           l2406:
  2827  007578                     	goto	l78
  2828  007578  EFDF  F03E         	
  2829                           l139:
  2830  00757C                     	line	173
  2831                           	
  2832                           l2408:
  2833  00757C                     ;motor2.c: 173:     Quiet(); delay();if(flag == 1){flag = 0;return;}
  2834                           	call	_Re	;wreg free
  2835  00757C  ECC4  F034         	call	_delay	;wreg free
  2836  007580  ECFF  F034         	
  2837                           l2410:
  2838  007584                     		decf	((c:_flag)),c,w
  2839  007584  040B               iorwf	((c:_flag+1)),c,w
  2840  007586  100C               	btfss	status,2
  2841  007588  A4D8               	goto	u1911
  2842  00758A  EFC9  F03A         	goto	u1910
  2843  00758E  EFCB  F03A         
  2844                           u1911:
  2845  007592                     	goto	l2416
  2846  007592  EFD3  F03A         u1910:
  2847  007596                     	
  2848                           l2412:
  2849  007596                     	movlw	high(0)
  2850  007596  0E00               	movwf	((c:_flag+1)),c
  2851  007598  6E0C               	movlw	low(0)
  2852  00759A  0E00               	movwf	((c:_flag)),c
  2853  00759C  6E0B               	goto	l78
  2854  00759E  EFDF  F03E         	
  2855                           l2414:
  2856  0075A2                     	goto	l78
  2857  0075A2  EFDF  F03E         	
  2858                           l140:
  2859  0075A6                     	line	174
  2860                           	
  2861                           l2416:
  2862  0075A6                     ;motor2.c: 174:     So(); delay();if(flag == 1){flag = 0;return;}delay();if(flag == 1){f
                                 lag = 0;return;}
  2863                           	call	_Quiet	;wreg free
  2864  0075A6  EC7A  F034         	call	_delay	;wreg free
  2865  0075AA  ECFF  F034         	
  2866                           l2418:
  2867  0075AE                     		decf	((c:_flag)),c,w
  2868  0075AE  040B               iorwf	((c:_flag+1)),c,w
  2869  0075B0  100C               	btfss	status,2
  2870  0075B2  A4D8               	goto	u1921
  2871  0075B4  EFDE  F03A         	goto	u1920
  2872  0075B8  EFE0  F03A         
  2873                           u1921:
  2874  0075BC                     	goto	l2424
  2875  0075BC  EFE8  F03A         u1920:
  2876  0075C0                     	
  2877                           l2420:
  2878  0075C0                     	movlw	high(0)
  2879  0075C0  0E00               	movwf	((c:_flag+1)),c
  2880  0075C2  6E0C               	movlw	low(0)
  2881  0075C4  0E00               	movwf	((c:_flag)),c
  2882  0075C6  6E0B               	goto	l78
  2883  0075C8  EFDF  F03E         	
  2884                           l2422:
  2885  0075CC                     	goto	l78
  2886  0075CC  EFDF  F03E         	
  2887                           l141:
  2888  0075D0                     	line	175
  2889                           	
  2890                           l2424:
  2891  0075D0                     ;motor2.c: 175:     Quiet(); delay();if(flag == 1){flag = 0;return;}
  2892                           	call	_Re	;wreg free
  2893  0075D0  ECC4  F034         	call	_delay	;wreg free
  2894  0075D4  ECFF  F034         	
  2895                           l2426:
  2896  0075D8                     		decf	((c:_flag)),c,w
  2897  0075D8  040B               iorwf	((c:_flag+1)),c,w
  2898  0075DA  100C               	btfss	status,2
  2899  0075DC  A4D8               	goto	u1931
  2900  0075DE  EFF3  F03A         	goto	u1930
  2901  0075E2  EFF5  F03A         
  2902                           u1931:
  2903  0075E6                     	goto	l2432
  2904  0075E6  EFFD  F03A         u1930:
  2905  0075EA                     	
  2906                           l2428:
  2907  0075EA                     	movlw	high(0)
  2908  0075EA  0E00               	movwf	((c:_flag+1)),c
  2909  0075EC  6E0C               	movlw	low(0)
  2910  0075EE  0E00               	movwf	((c:_flag)),c
  2911  0075F0  6E0B               	goto	l78
  2912  0075F2  EFDF  F03E         	
  2913                           l2430:
  2914  0075F6                     	goto	l78
  2915  0075F6  EFDF  F03E         	
  2916                           l142:
  2917  0075FA                     	line	176
  2918                           	
  2919                           l2432:
  2920  0075FA                     ;motor2.c: 176:     So(); delay();if(flag == 1){flag = 0;return;}
  2921                           	call	_Quiet	;wreg free
  2922  0075FA  EC7A  F034         	call	_delay	;wreg free
  2923  0075FE  ECFF  F034         	
  2924                           l2434:
  2925  007602                     		decf	((c:_flag)),c,w
  2926  007602  040B               iorwf	((c:_flag+1)),c,w
  2927  007604  100C               	btfss	status,2
  2928  007606  A4D8               	goto	u1941
  2929  007608  EF08  F03B         	goto	u1940
  2930  00760C  EF0A  F03B         
  2931                           u1941:
  2932  007610                     	goto	l2440
  2933  007610  EF12  F03B         u1940:
  2934  007614                     	
  2935                           l2436:
  2936  007614                     	movlw	high(0)
  2937  007614  0E00               	movwf	((c:_flag+1)),c
  2938  007616  6E0C               	movlw	low(0)
  2939  007618  0E00               	movwf	((c:_flag)),c
  2940  00761A  6E0B               	goto	l78
  2941  00761C  EFDF  F03E         	
  2942                           l2438:
  2943  007620                     	goto	l78
  2944  007620  EFDF  F03E         	
  2945                           l143:
  2946  007624                     	line	177
  2947                           	
  2948                           l2440:
  2949  007624                     ;motor2.c: 177:     Quiet(); delay();if(flag == 1){flag = 0;return;}
  2950                           	call	_Mi	;wreg free
  2951  007624  ECB3  F034         	call	_delay	;wreg free
  2952  007628  ECFF  F034         	
  2953                           l2442:
  2954  00762C                     		decf	((c:_flag)),c,w
  2955  00762C  040B               iorwf	((c:_flag+1)),c,w
  2956  00762E  100C               	btfss	status,2
  2957  007630  A4D8               	goto	u1951
  2958  007632  EF1D  F03B         	goto	u1950
  2959  007636  EF1F  F03B         
  2960                           u1951:
  2961  00763A                     	goto	l2448
  2962  00763A  EF27  F03B         u1950:
  2963  00763E                     	
  2964                           l2444:
  2965  00763E                     	movlw	high(0)
  2966  00763E  0E00               	movwf	((c:_flag+1)),c
  2967  007640  6E0C               	movlw	low(0)
  2968  007642  0E00               	movwf	((c:_flag)),c
  2969  007644  6E0B               	goto	l78
  2970  007646  EFDF  F03E         	
  2971                           l2446:
  2972  00764A                     	goto	l78
  2973  00764A  EFDF  F03E         	
  2974                           l144:
  2975  00764E                     	line	178
  2976                           	
  2977                           l2448:
  2978  00764E                     ;motor2.c: 178:     Mi(); delay();if(flag == 1){flag = 0;return;}
  2979                           	call	_Quiet	;wreg free
  2980  00764E  EC7A  F034         	call	_delay	;wreg free
  2981  007652  ECFF  F034         	
  2982                           l2450:
  2983  007656                     		decf	((c:_flag)),c,w
  2984  007656  040B               iorwf	((c:_flag+1)),c,w
  2985  007658  100C               	btfss	status,2
  2986  00765A  A4D8               	goto	u1961
  2987  00765C  EF32  F03B         	goto	u1960
  2988  007660  EF34  F03B         
  2989                           u1961:
  2990  007664                     	goto	l2456
  2991  007664  EF3C  F03B         u1960:
  2992  007668                     	
  2993                           l2452:
  2994  007668                     	movlw	high(0)
  2995  007668  0E00               	movwf	((c:_flag+1)),c
  2996  00766A  6E0C               	movlw	low(0)
  2997  00766C  0E00               	movwf	((c:_flag)),c
  2998  00766E  6E0B               	goto	l78
  2999  007670  EFDF  F03E         	
  3000                           l2454:
  3001  007674                     	goto	l78
  3002  007674  EFDF  F03E         	
  3003                           l145:
  3004  007678                     	line	179
  3005                           	
  3006                           l2456:
  3007  007678                     ;motor2.c: 179:     Quiet(); delay();if(flag == 1){flag = 0;return;}
  3008                           	call	_Fa	;wreg free
  3009  007678  ECA2  F034         	call	_delay	;wreg free
  3010  00767C  ECFF  F034         	
  3011                           l2458:
  3012  007680                     		decf	((c:_flag)),c,w
  3013  007680  040B               iorwf	((c:_flag+1)),c,w
  3014  007682  100C               	btfss	status,2
  3015  007684  A4D8               	goto	u1971
  3016  007686  EF47  F03B         	goto	u1970
  3017  00768A  EF49  F03B         
  3018                           u1971:
  3019  00768E                     	goto	l2464
  3020  00768E  EF51  F03B         u1970:
  3021  007692                     	
  3022                           l2460:
  3023  007692                     	movlw	high(0)
  3024  007692  0E00               	movwf	((c:_flag+1)),c
  3025  007694  6E0C               	movlw	low(0)
  3026  007696  0E00               	movwf	((c:_flag)),c
  3027  007698  6E0B               	goto	l78
  3028  00769A  EFDF  F03E         	
  3029                           l2462:
  3030  00769E                     	goto	l78
  3031  00769E  EFDF  F03E         	
  3032                           l146:
  3033  0076A2                     	
  3034                           l2464:
  3035  0076A2                     	call	_delay	;wreg free
  3036  0076A2  ECFF  F034         	
  3037                           l2466:
  3038  0076A6                     		decf	((c:_flag)),c,w
  3039  0076A6  040B               iorwf	((c:_flag+1)),c,w
  3040  0076A8  100C               	btfss	status,2
  3041  0076AA  A4D8               	goto	u1981
  3042  0076AC  EF5A  F03B         	goto	u1980
  3043  0076B0  EF5C  F03B         
  3044                           u1981:
  3045  0076B4                     	goto	l2472
  3046  0076B4  EF64  F03B         u1980:
  3047  0076B8                     	
  3048                           l2468:
  3049  0076B8                     	movlw	high(0)
  3050  0076B8  0E00               	movwf	((c:_flag+1)),c
  3051  0076BA  6E0C               	movlw	low(0)
  3052  0076BC  0E00               	movwf	((c:_flag)),c
  3053  0076BE  6E0B               	goto	l78
  3054  0076C0  EFDF  F03E         	
  3055                           l2470:
  3056  0076C4                     	goto	l78
  3057  0076C4  EFDF  F03E         	
  3058                           l147:
  3059  0076C8                     	line	180
  3060                           	
  3061                           l2472:
  3062  0076C8                     ;motor2.c: 180:     Mi(); delay();if(flag == 1){flag = 0;return;} delay();if(flag == 1){
                                 flag = 0;return;}
  3063                           	call	_Quiet	;wreg free
  3064  0076C8  EC7A  F034         	call	_delay	;wreg free
  3065  0076CC  ECFF  F034         	
  3066                           l2474:
  3067  0076D0                     		decf	((c:_flag)),c,w
  3068  0076D0  040B               iorwf	((c:_flag+1)),c,w
  3069  0076D2  100C               	btfss	status,2
  3070  0076D4  A4D8               	goto	u1991
  3071  0076D6  EF6F  F03B         	goto	u1990
  3072  0076DA  EF71  F03B         
  3073                           u1991:
  3074  0076DE                     	goto	l2480
  3075  0076DE  EF79  F03B         u1990:
  3076  0076E2                     	
  3077                           l2476:
  3078  0076E2                     	movlw	high(0)
  3079  0076E2  0E00               	movwf	((c:_flag+1)),c
  3080  0076E4  6E0C               	movlw	low(0)
  3081  0076E6  0E00               	movwf	((c:_flag)),c
  3082  0076E8  6E0B               	goto	l78
  3083  0076EA  EFDF  F03E         	
  3084                           l2478:
  3085  0076EE                     	goto	l78
  3086  0076EE  EFDF  F03E         	
  3087                           l148:
  3088  0076F2                     	line	181
  3089                           	
  3090                           l2480:
  3091  0076F2                     ;motor2.c: 181:     Quiet(); delay();if(flag == 1){flag = 0;return;}
  3092                           	call	_Mi	;wreg free
  3093  0076F2  ECB3  F034         	call	_delay	;wreg free
  3094  0076F6  ECFF  F034         	
  3095                           l2482:
  3096  0076FA                     		decf	((c:_flag)),c,w
  3097  0076FA  040B               iorwf	((c:_flag+1)),c,w
  3098  0076FC  100C               	btfss	status,2
  3099  0076FE  A4D8               	goto	u2001
  3100  007700  EF84  F03B         	goto	u2000
  3101  007704  EF86  F03B         
  3102                           u2001:
  3103  007708                     	goto	l2488
  3104  007708  EF8E  F03B         u2000:
  3105  00770C                     	
  3106                           l2484:
  3107  00770C                     	movlw	high(0)
  3108  00770C  0E00               	movwf	((c:_flag+1)),c
  3109  00770E  6E0C               	movlw	low(0)
  3110  007710  0E00               	movwf	((c:_flag)),c
  3111  007712  6E0B               	goto	l78
  3112  007714  EFDF  F03E         	
  3113                           l2486:
  3114  007718                     	goto	l78
  3115  007718  EFDF  F03E         	
  3116                           l149:
  3117  00771C                     	line	182
  3118                           	
  3119                           l2488:
  3120  00771C                     ;motor2.c: 182:     Fa(); delay();if(flag == 1){flag = 0;return;}
  3121                           	call	_Quiet	;wreg free
  3122  00771C  EC7A  F034         	call	_delay	;wreg free
  3123  007720  ECFF  F034         	
  3124                           l2490:
  3125  007724                     		decf	((c:_flag)),c,w
  3126  007724  040B               iorwf	((c:_flag+1)),c,w
  3127  007726  100C               	btfss	status,2
  3128  007728  A4D8               	goto	u2011
  3129  00772A  EF99  F03B         	goto	u2010
  3130  00772E  EF9B  F03B         
  3131                           u2011:
  3132  007732                     	goto	l2496
  3133  007732  EFA3  F03B         u2010:
  3134  007736                     	
  3135                           l2492:
  3136  007736                     	movlw	high(0)
  3137  007736  0E00               	movwf	((c:_flag+1)),c
  3138  007738  6E0C               	movlw	low(0)
  3139  00773A  0E00               	movwf	((c:_flag)),c
  3140  00773C  6E0B               	goto	l78
  3141  00773E  EFDF  F03E         	
  3142                           l2494:
  3143  007742                     	goto	l78
  3144  007742  EFDF  F03E         	
  3145                           l150:
  3146  007746                     	line	183
  3147                           	
  3148                           l2496:
  3149  007746                     ;motor2.c: 183:     Quiet(); delay();if(flag == 1){flag = 0;return;}
  3150                           	call	_Mi	;wreg free
  3151  007746  ECB3  F034         	call	_delay	;wreg free
  3152  00774A  ECFF  F034         	
  3153                           l2498:
  3154  00774E                     		decf	((c:_flag)),c,w
  3155  00774E  040B               iorwf	((c:_flag+1)),c,w
  3156  007750  100C               	btfss	status,2
  3157  007752  A4D8               	goto	u2021
  3158  007754  EFAE  F03B         	goto	u2020
  3159  007758  EFB0  F03B         
  3160                           u2021:
  3161  00775C                     	goto	l2504
  3162  00775C  EFB8  F03B         u2020:
  3163  007760                     	
  3164                           l2500:
  3165  007760                     	movlw	high(0)
  3166  007760  0E00               	movwf	((c:_flag+1)),c
  3167  007762  6E0C               	movlw	low(0)
  3168  007764  0E00               	movwf	((c:_flag)),c
  3169  007766  6E0B               	goto	l78
  3170  007768  EFDF  F03E         	
  3171                           l2502:
  3172  00776C                     	goto	l78
  3173  00776C  EFDF  F03E         	
  3174                           l151:
  3175  007770                     	line	184
  3176                           	
  3177                           l2504:
  3178  007770                     ;motor2.c: 184:     Re(); delay();if(flag == 1){flag = 0;return;}
  3179                           	call	_Quiet	;wreg free
  3180  007770  EC7A  F034         	call	_delay	;wreg free
  3181  007774  ECFF  F034         	
  3182                           l2506:
  3183  007778                     		decf	((c:_flag)),c,w
  3184  007778  040B               iorwf	((c:_flag+1)),c,w
  3185  00777A  100C               	btfss	status,2
  3186  00777C  A4D8               	goto	u2031
  3187  00777E  EFC3  F03B         	goto	u2030
  3188  007782  EFC5  F03B         
  3189                           u2031:
  3190  007786                     	goto	l2512
  3191  007786  EFCD  F03B         u2030:
  3192  00778A                     	
  3193                           l2508:
  3194  00778A                     	movlw	high(0)
  3195  00778A  0E00               	movwf	((c:_flag+1)),c
  3196  00778C  6E0C               	movlw	low(0)
  3197  00778E  0E00               	movwf	((c:_flag)),c
  3198  007790  6E0B               	goto	l78
  3199  007792  EFDF  F03E         	
  3200                           l2510:
  3201  007796                     	goto	l78
  3202  007796  EFDF  F03E         	
  3203                           l152:
  3204  00779A                     	line	185
  3205                           	
  3206                           l2512:
  3207  00779A                     ;motor2.c: 185:     Quiet(); delay();if(flag == 1){flag = 0;return;}
  3208                           	call	_Mi	;wreg free
  3209  00779A  ECB3  F034         	call	_delay	;wreg free
  3210  00779E  ECFF  F034         	
  3211                           l2514:
  3212  0077A2                     		decf	((c:_flag)),c,w
  3213  0077A2  040B               iorwf	((c:_flag+1)),c,w
  3214  0077A4  100C               	btfss	status,2
  3215  0077A6  A4D8               	goto	u2041
  3216  0077A8  EFD8  F03B         	goto	u2040
  3217  0077AC  EFDA  F03B         
  3218                           u2041:
  3219  0077B0                     	goto	l2520
  3220  0077B0  EFE2  F03B         u2040:
  3221  0077B4                     	
  3222                           l2516:
  3223  0077B4                     	movlw	high(0)
  3224  0077B4  0E00               	movwf	((c:_flag+1)),c
  3225  0077B6  6E0C               	movlw	low(0)
  3226  0077B8  0E00               	movwf	((c:_flag)),c
  3227  0077BA  6E0B               	goto	l78
  3228  0077BC  EFDF  F03E         	
  3229                           l2518:
  3230  0077C0                     	goto	l78
  3231  0077C0  EFDF  F03E         	
  3232                           l153:
  3233  0077C4                     	line	186
  3234                           	
  3235                           l2520:
  3236  0077C4                     ;motor2.c: 186:     Re(); delay();if(flag == 1){flag = 0;return;} delay();if(flag == 1){
                                 flag = 0;return;}
  3237                           	call	_Quiet	;wreg free
  3238  0077C4  EC7A  F034         	call	_delay	;wreg free
  3239  0077C8  ECFF  F034         	
  3240                           l2522:
  3241  0077CC                     		decf	((c:_flag)),c,w
  3242  0077CC  040B               iorwf	((c:_flag+1)),c,w
  3243  0077CE  100C               	btfss	status,2
  3244  0077D0  A4D8               	goto	u2051
  3245  0077D2  EFED  F03B         	goto	u2050
  3246  0077D6  EFEF  F03B         
  3247                           u2051:
  3248  0077DA                     	goto	l2528
  3249  0077DA  EFF7  F03B         u2050:
  3250  0077DE                     	
  3251                           l2524:
  3252  0077DE                     	movlw	high(0)
  3253  0077DE  0E00               	movwf	((c:_flag+1)),c
  3254  0077E0  6E0C               	movlw	low(0)
  3255  0077E2  0E00               	movwf	((c:_flag)),c
  3256  0077E4  6E0B               	goto	l78
  3257  0077E6  EFDF  F03E         	
  3258                           l2526:
  3259  0077EA                     	goto	l78
  3260  0077EA  EFDF  F03E         	
  3261                           l154:
  3262  0077EE                     	line	187
  3263                           	
  3264                           l2528:
  3265  0077EE                     ;motor2.c: 187:     Quiet(); delay();if(flag == 1){flag = 0;return;}
  3266                           	call	_Mi	;wreg free
  3267  0077EE  ECB3  F034         	call	_delay	;wreg free
  3268  0077F2  ECFF  F034         	
  3269                           l2530:
  3270  0077F6                     		decf	((c:_flag)),c,w
  3271  0077F6  040B               iorwf	((c:_flag+1)),c,w
  3272  0077F8  100C               	btfss	status,2
  3273  0077FA  A4D8               	goto	u2061
  3274  0077FC  EF02  F03C         	goto	u2060
  3275  007800  EF04  F03C         
  3276                           u2061:
  3277  007804                     	goto	l2536
  3278  007804  EF0C  F03C         u2060:
  3279  007808                     	
  3280                           l2532:
  3281  007808                     	movlw	high(0)
  3282  007808  0E00               	movwf	((c:_flag+1)),c
  3283  00780A  6E0C               	movlw	low(0)
  3284  00780C  0E00               	movwf	((c:_flag)),c
  3285  00780E  6E0B               	goto	l78
  3286  007810  EFDF  F03E         	
  3287                           l2534:
  3288  007814                     	goto	l78
  3289  007814  EFDF  F03E         	
  3290                           l155:
  3291  007818                     	line	188
  3292                           	
  3293                           l2536:
  3294  007818                     ;motor2.c: 188:     Do(); delay();if(flag == 1){flag = 0;return;}
  3295                           	call	_Quiet	;wreg free
  3296  007818  EC7A  F034         	call	_delay	;wreg free
  3297  00781C  ECFF  F034         	
  3298                           l2538:
  3299  007820                     		decf	((c:_flag)),c,w
  3300  007820  040B               iorwf	((c:_flag+1)),c,w
  3301  007822  100C               	btfss	status,2
  3302  007824  A4D8               	goto	u2071
  3303  007826  EF17  F03C         	goto	u2070
  3304  00782A  EF19  F03C         
  3305                           u2071:
  3306  00782E                     	goto	l2544
  3307  00782E  EF21  F03C         u2070:
  3308  007832                     	
  3309                           l2540:
  3310  007832                     	movlw	high(0)
  3311  007832  0E00               	movwf	((c:_flag+1)),c
  3312  007834  6E0C               	movlw	low(0)
  3313  007836  0E00               	movwf	((c:_flag)),c
  3314  007838  6E0B               	goto	l78
  3315  00783A  EFDF  F03E         	
  3316                           l2542:
  3317  00783E                     	goto	l78
  3318  00783E  EFDF  F03E         	
  3319                           l156:
  3320  007842                     	line	189
  3321                           	
  3322                           l2544:
  3323  007842                     ;motor2.c: 189:     Quiet(); delay();if(flag == 1){flag = 0;return;}
  3324                           	call	_Mi	;wreg free
  3325  007842  ECB3  F034         	call	_delay	;wreg free
  3326  007846  ECFF  F034         	
  3327                           l2546:
  3328  00784A                     		decf	((c:_flag)),c,w
  3329  00784A  040B               iorwf	((c:_flag+1)),c,w
  3330  00784C  100C               	btfss	status,2
  3331  00784E  A4D8               	goto	u2081
  3332  007850  EF2C  F03C         	goto	u2080
  3333  007854  EF2E  F03C         
  3334                           u2081:
  3335  007858                     	goto	l2552
  3336  007858  EF36  F03C         u2080:
  3337  00785C                     	
  3338                           l2548:
  3339  00785C                     	movlw	high(0)
  3340  00785C  0E00               	movwf	((c:_flag+1)),c
  3341  00785E  6E0C               	movlw	low(0)
  3342  007860  0E00               	movwf	((c:_flag)),c
  3343  007862  6E0B               	goto	l78
  3344  007864  EFDF  F03E         	
  3345                           l2550:
  3346  007868                     	goto	l78
  3347  007868  EFDF  F03E         	
  3348                           l157:
  3349  00786C                     	line	190
  3350                           	
  3351                           l2552:
  3352  00786C                     ;motor2.c: 190:     Mi(); delay();if(flag == 1){flag = 0;return;}
  3353                           	call	_Quiet	;wreg free
  3354  00786C  EC7A  F034         	call	_delay	;wreg free
  3355  007870  ECFF  F034         	
  3356                           l2554:
  3357  007874                     		decf	((c:_flag)),c,w
  3358  007874  040B               iorwf	((c:_flag+1)),c,w
  3359  007876  100C               	btfss	status,2
  3360  007878  A4D8               	goto	u2091
  3361  00787A  EF41  F03C         	goto	u2090
  3362  00787E  EF43  F03C         
  3363                           u2091:
  3364  007882                     	goto	l2560
  3365  007882  EF4B  F03C         u2090:
  3366  007886                     	
  3367                           l2556:
  3368  007886                     	movlw	high(0)
  3369  007886  0E00               	movwf	((c:_flag+1)),c
  3370  007888  6E0C               	movlw	low(0)
  3371  00788A  0E00               	movwf	((c:_flag)),c
  3372  00788C  6E0B               	goto	l78
  3373  00788E  EFDF  F03E         	
  3374                           l2558:
  3375  007892                     	goto	l78
  3376  007892  EFDF  F03E         	
  3377                           l158:
  3378  007896                     	line	191
  3379                           	
  3380                           l2560:
  3381  007896                     ;motor2.c: 191:     Quiet(); delay();if(flag == 1){flag = 0;return;}
  3382                           	call	_Fa	;wreg free
  3383  007896  ECA2  F034         	call	_delay	;wreg free
  3384  00789A  ECFF  F034         	
  3385                           l2562:
  3386  00789E                     		decf	((c:_flag)),c,w
  3387  00789E  040B               iorwf	((c:_flag+1)),c,w
  3388  0078A0  100C               	btfss	status,2
  3389  0078A2  A4D8               	goto	u2101
  3390  0078A4  EF56  F03C         	goto	u2100
  3391  0078A8  EF58  F03C         
  3392                           u2101:
  3393  0078AC                     	goto	l2568
  3394  0078AC  EF60  F03C         u2100:
  3395  0078B0                     	
  3396                           l2564:
  3397  0078B0                     	movlw	high(0)
  3398  0078B0  0E00               	movwf	((c:_flag+1)),c
  3399  0078B2  6E0C               	movlw	low(0)
  3400  0078B4  0E00               	movwf	((c:_flag)),c
  3401  0078B6  6E0B               	goto	l78
  3402  0078B8  EFDF  F03E         	
  3403                           l2566:
  3404  0078BC                     	goto	l78
  3405  0078BC  EFDF  F03E         	
  3406                           l159:
  3407  0078C0                     	line	192
  3408                           	
  3409                           l2568:
  3410  0078C0                     ;motor2.c: 192:      So(); delay();if(flag == 1){flag = 0;return;}
  3411                           	call	_Quiet	;wreg free
  3412  0078C0  EC7A  F034         	call	_delay	;wreg free
  3413  0078C4  ECFF  F034         	
  3414                           l2570:
  3415  0078C8                     		decf	((c:_flag)),c,w
  3416  0078C8  040B               iorwf	((c:_flag+1)),c,w
  3417  0078CA  100C               	btfss	status,2
  3418  0078CC  A4D8               	goto	u2111
  3419  0078CE  EF6B  F03C         	goto	u2110
  3420  0078D2  EF6D  F03C         
  3421                           u2111:
  3422  0078D6                     	goto	l2576
  3423  0078D6  EF75  F03C         u2110:
  3424  0078DA                     	
  3425                           l2572:
  3426  0078DA                     	movlw	high(0)
  3427  0078DA  0E00               	movwf	((c:_flag+1)),c
  3428  0078DC  6E0C               	movlw	low(0)
  3429  0078DE  0E00               	movwf	((c:_flag)),c
  3430  0078E0  6E0B               	goto	l78
  3431  0078E2  EFDF  F03E         	
  3432                           l2574:
  3433  0078E6                     	goto	l78
  3434  0078E6  EFDF  F03E         	
  3435                           l160:
  3436  0078EA                     	line	193
  3437                           	
  3438                           l2576:
  3439  0078EA                     ;motor2.c: 193:     Quiet(); delay();if(flag == 1){flag = 0;return;}
  3440                           	call	_So	;wreg free
  3441  0078EA  ECD5  F034         	call	_delay	;wreg free
  3442  0078EE  ECFF  F034         	
  3443                           l2578:
  3444  0078F2                     		decf	((c:_flag)),c,w
  3445  0078F2  040B               iorwf	((c:_flag+1)),c,w
  3446  0078F4  100C               	btfss	status,2
  3447  0078F6  A4D8               	goto	u2121
  3448  0078F8  EF80  F03C         	goto	u2120
  3449  0078FC  EF82  F03C         
  3450                           u2121:
  3451  007900                     	goto	l2584
  3452  007900  EF8A  F03C         u2120:
  3453  007904                     	
  3454                           l2580:
  3455  007904                     	movlw	high(0)
  3456  007904  0E00               	movwf	((c:_flag+1)),c
  3457  007906  6E0C               	movlw	low(0)
  3458  007908  0E00               	movwf	((c:_flag)),c
  3459  00790A  6E0B               	goto	l78
  3460  00790C  EFDF  F03E         	
  3461                           l2582:
  3462  007910                     	goto	l78
  3463  007910  EFDF  F03E         	
  3464                           l161:
  3465  007914                     	
  3466                           l2584:
  3467  007914                     	call	_delay	;wreg free
  3468  007914  ECFF  F034         	
  3469                           l2586:
  3470  007918                     		decf	((c:_flag)),c,w
  3471  007918  040B               iorwf	((c:_flag+1)),c,w
  3472  00791A  100C               	btfss	status,2
  3473  00791C  A4D8               	goto	u2131
  3474  00791E  EF93  F03C         	goto	u2130
  3475  007922  EF95  F03C         
  3476                           u2131:
  3477  007926                     	goto	l2592
  3478  007926  EF9D  F03C         u2130:
  3479  00792A                     	
  3480                           l2588:
  3481  00792A                     	movlw	high(0)
  3482  00792A  0E00               	movwf	((c:_flag+1)),c
  3483  00792C  6E0C               	movlw	low(0)
  3484  00792E  0E00               	movwf	((c:_flag)),c
  3485  007930  6E0B               	goto	l78
  3486  007932  EFDF  F03E         	
  3487                           l2590:
  3488  007936                     	goto	l78
  3489  007936  EFDF  F03E         	
  3490                           l162:
  3491  00793A                     	line	194
  3492                           	
  3493                           l2592:
  3494  00793A                     ;motor2.c: 194:     So(); delay();if(flag == 1){flag = 0;return;}
  3495                           	call	_Quiet	;wreg free
  3496  00793A  EC7A  F034         	call	_delay	;wreg free
  3497  00793E  ECFF  F034         	
  3498                           l2594:
  3499  007942                     		decf	((c:_flag)),c,w
  3500  007942  040B               iorwf	((c:_flag+1)),c,w
  3501  007944  100C               	btfss	status,2
  3502  007946  A4D8               	goto	u2141
  3503  007948  EFA8  F03C         	goto	u2140
  3504  00794C  EFAA  F03C         
  3505                           u2141:
  3506  007950                     	goto	l2600
  3507  007950  EFB2  F03C         u2140:
  3508  007954                     	
  3509                           l2596:
  3510  007954                     	movlw	high(0)
  3511  007954  0E00               	movwf	((c:_flag+1)),c
  3512  007956  6E0C               	movlw	low(0)
  3513  007958  0E00               	movwf	((c:_flag)),c
  3514  00795A  6E0B               	goto	l78
  3515  00795C  EFDF  F03E         	
  3516                           l2598:
  3517  007960                     	goto	l78
  3518  007960  EFDF  F03E         	
  3519                           l163:
  3520  007964                     	line	195
  3521                           	
  3522                           l2600:
  3523  007964                     ;motor2.c: 195:     Quiet(); delay();if(flag == 1){flag = 0;return;}
  3524                           	call	_So	;wreg free
  3525  007964  ECD5  F034         	call	_delay	;wreg free
  3526  007968  ECFF  F034         	
  3527                           l2602:
  3528  00796C                     		decf	((c:_flag)),c,w
  3529  00796C  040B               iorwf	((c:_flag+1)),c,w
  3530  00796E  100C               	btfss	status,2
  3531  007970  A4D8               	goto	u2151
  3532  007972  EFBD  F03C         	goto	u2150
  3533  007976  EFBF  F03C         
  3534                           u2151:
  3535  00797A                     	goto	l2608
  3536  00797A  EFC7  F03C         u2150:
  3537  00797E                     	
  3538                           l2604:
  3539  00797E                     	movlw	high(0)
  3540  00797E  0E00               	movwf	((c:_flag+1)),c
  3541  007980  6E0C               	movlw	low(0)
  3542  007982  0E00               	movwf	((c:_flag)),c
  3543  007984  6E0B               	goto	l78
  3544  007986  EFDF  F03E         	
  3545                           l2606:
  3546  00798A                     	goto	l78
  3547  00798A  EFDF  F03E         	
  3548                           l164:
  3549  00798E                     	line	196
  3550                           	
  3551                           l2608:
  3552  00798E                     ;motor2.c: 196:     Do(); delay(); if(flag == 1){flag = 0;return;}delay();if(flag == 1){
                                 flag = 0;return;}delay();if(flag == 1){flag = 0;return;} delay();if(flag == 1){flag = 0;
                                 return;}
  3553                           	call	_Quiet	;wreg free
  3554  00798E  EC7A  F034         	call	_delay	;wreg free
  3555  007992  ECFF  F034         	
  3556                           l2610:
  3557  007996                     		decf	((c:_flag)),c,w
  3558  007996  040B               iorwf	((c:_flag+1)),c,w
  3559  007998  100C               	btfss	status,2
  3560  00799A  A4D8               	goto	u2161
  3561  00799C  EFD2  F03C         	goto	u2160
  3562  0079A0  EFD4  F03C         
  3563                           u2161:
  3564  0079A4                     	goto	l2616
  3565  0079A4  EFDC  F03C         u2160:
  3566  0079A8                     	
  3567                           l2612:
  3568  0079A8                     	movlw	high(0)
  3569  0079A8  0E00               	movwf	((c:_flag+1)),c
  3570  0079AA  6E0C               	movlw	low(0)
  3571  0079AC  0E00               	movwf	((c:_flag)),c
  3572  0079AE  6E0B               	goto	l78
  3573  0079B0  EFDF  F03E         	
  3574                           l2614:
  3575  0079B4                     	goto	l78
  3576  0079B4  EFDF  F03E         	
  3577                           l165:
  3578  0079B8                     	line	197
  3579                           	
  3580                           l2616:
  3581  0079B8                     ;motor2.c: 197:     Quiet(); delay();if(flag == 1){flag = 0;return;}
  3582                           	call	_Mi	;wreg free
  3583  0079B8  ECB3  F034         	call	_delay	;wreg free
  3584  0079BC  ECFF  F034         	
  3585                           l2618:
  3586  0079C0                     		decf	((c:_flag)),c,w
  3587  0079C0  040B               iorwf	((c:_flag+1)),c,w
  3588  0079C2  100C               	btfss	status,2
  3589  0079C4  A4D8               	goto	u2171
  3590  0079C6  EFE7  F03C         	goto	u2170
  3591  0079CA  EFE9  F03C         
  3592                           u2171:
  3593  0079CE                     	goto	l2624
  3594  0079CE  EFF1  F03C         u2170:
  3595  0079D2                     	
  3596                           l2620:
  3597  0079D2                     	movlw	high(0)
  3598  0079D2  0E00               	movwf	((c:_flag+1)),c
  3599  0079D4  6E0C               	movlw	low(0)
  3600  0079D6  0E00               	movwf	((c:_flag)),c
  3601  0079D8  6E0B               	goto	l78
  3602  0079DA  EFDF  F03E         	
  3603                           l2622:
  3604  0079DE                     	goto	l78
  3605  0079DE  EFDF  F03E         	
  3606                           l166:
  3607  0079E2                     	line	198
  3608                           	
  3609                           l2624:
  3610  0079E2                     ;motor2.c: 198: }
  3611                           	call	_Quiet	;wreg free
  3612  0079E2  EC7A  F034         	call	_delay	;wreg free
  3613  0079E6  ECFF  F034         	
  3614                           l2626:
  3615  0079EA                     		decf	((c:_flag)),c,w
  3616  0079EA  040B               iorwf	((c:_flag+1)),c,w
  3617  0079EC  100C               	btfss	status,2
  3618  0079EE  A4D8               	goto	u2181
  3619  0079F0  EFFC  F03C         	goto	u2180
  3620  0079F4  EFFE  F03C         
  3621                           u2181:
  3622  0079F8                     	goto	l2632
  3623  0079F8  EF06  F03D         u2180:
  3624  0079FC                     	
  3625                           l2628:
  3626  0079FC                     	movlw	high(0)
  3627  0079FC  0E00               	movwf	((c:_flag+1)),c
  3628  0079FE  6E0C               	movlw	low(0)
  3629  007A00  0E00               	movwf	((c:_flag)),c
  3630  007A02  6E0B               	goto	l78
  3631  007A04  EFDF  F03E         	
  3632                           l2630:
  3633  007A08                     	goto	l78
  3634  007A08  EFDF  F03E         	
  3635                           l167:
  3636  007A0C                     	line	199
  3637                           	
  3638                           l2632:
  3639  007A0C                     ;motor2.c: 199: 
  3640                           	call	_Mi	;wreg free
  3641  007A0C  ECB3  F034         	call	_delay	;wreg free
  3642  007A10  ECFF  F034         	
  3643                           l2634:
  3644  007A14                     		decf	((c:_flag)),c,w
  3645  007A14  040B               iorwf	((c:_flag+1)),c,w
  3646  007A16  100C               	btfss	status,2
  3647  007A18  A4D8               	goto	u2191
  3648  007A1A  EF11  F03D         	goto	u2190
  3649  007A1E  EF13  F03D         
  3650                           u2191:
  3651  007A22                     	goto	l2640
  3652  007A22  EF1B  F03D         u2190:
  3653  007A26                     	
  3654                           l2636:
  3655  007A26                     	movlw	high(0)
  3656  007A26  0E00               	movwf	((c:_flag+1)),c
  3657  007A28  6E0C               	movlw	low(0)
  3658  007A2A  0E00               	movwf	((c:_flag)),c
  3659  007A2C  6E0B               	goto	l78
  3660  007A2E  EFDF  F03E         	
  3661                           l2638:
  3662  007A32                     	goto	l78
  3663  007A32  EFDF  F03E         	
  3664                           l168:
  3665  007A36                     	
  3666                           l2640:
  3667  007A36                     	call	_delay	;wreg free
  3668  007A36  ECFF  F034         	
  3669                           l2642:
  3670  007A3A                     		decf	((c:_flag)),c,w
  3671  007A3A  040B               iorwf	((c:_flag+1)),c,w
  3672  007A3C  100C               	btfss	status,2
  3673  007A3E  A4D8               	goto	u2201
  3674  007A40  EF24  F03D         	goto	u2200
  3675  007A44  EF26  F03D         
  3676                           u2201:
  3677  007A48                     	goto	l2648
  3678  007A48  EF2E  F03D         u2200:
  3679  007A4C                     	
  3680                           l2644:
  3681  007A4C                     	movlw	high(0)
  3682  007A4C  0E00               	movwf	((c:_flag+1)),c
  3683  007A4E  6E0C               	movlw	low(0)
  3684  007A50  0E00               	movwf	((c:_flag)),c
  3685  007A52  6E0B               	goto	l78
  3686  007A54  EFDF  F03E         	
  3687                           l2646:
  3688  007A58                     	goto	l78
  3689  007A58  EFDF  F03E         	
  3690                           l169:
  3691  007A5C                     	line	200
  3692                           	
  3693                           l2648:
  3694  007A5C                     ;motor2.c: 200: void main()
  3695                           	call	_Quiet	;wreg free
  3696  007A5C  EC7A  F034         	call	_delay	;wreg free
  3697  007A60  ECFF  F034         	
  3698                           l2650:
  3699  007A64                     		decf	((c:_flag)),c,w
  3700  007A64  040B               iorwf	((c:_flag+1)),c,w
  3701  007A66  100C               	btfss	status,2
  3702  007A68  A4D8               	goto	u2211
  3703  007A6A  EF39  F03D         	goto	u2210
  3704  007A6E  EF3B  F03D         
  3705                           u2211:
  3706  007A72                     	goto	l2656
  3707  007A72  EF43  F03D         u2210:
  3708  007A76                     	
  3709                           l2652:
  3710  007A76                     	movlw	high(0)
  3711  007A76  0E00               	movwf	((c:_flag+1)),c
  3712  007A78  6E0C               	movlw	low(0)
  3713  007A7A  0E00               	movwf	((c:_flag)),c
  3714  007A7C  6E0B               	goto	l78
  3715  007A7E  EFDF  F03E         	
  3716                           l2654:
  3717  007A82                     	goto	l78
  3718  007A82  EFDF  F03E         	
  3719                           l170:
  3720  007A86                     	line	201
  3721                           	
  3722                           l2656:
  3723  007A86                     ;motor2.c: 201: {
  3724                           	call	_Fa	;wreg free
  3725  007A86  ECA2  F034         	call	_delay	;wreg free
  3726  007A8A  ECFF  F034         	
  3727                           l2658:
  3728  007A8E                     		decf	((c:_flag)),c,w
  3729  007A8E  040B               iorwf	((c:_flag+1)),c,w
  3730  007A90  100C               	btfss	status,2
  3731  007A92  A4D8               	goto	u2221
  3732  007A94  EF4E  F03D         	goto	u2220
  3733  007A98  EF50  F03D         
  3734                           u2221:
  3735  007A9C                     	goto	l2664
  3736  007A9C  EF58  F03D         u2220:
  3737  007AA0                     	
  3738                           l2660:
  3739  007AA0                     	movlw	high(0)
  3740  007AA0  0E00               	movwf	((c:_flag+1)),c
  3741  007AA2  6E0C               	movlw	low(0)
  3742  007AA4  0E00               	movwf	((c:_flag)),c
  3743  007AA6  6E0B               	goto	l78
  3744  007AA8  EFDF  F03E         	
  3745                           l2662:
  3746  007AAC                     	goto	l78
  3747  007AAC  EFDF  F03E         	
  3748                           l171:
  3749  007AB0                     	line	202
  3750                           	
  3751                           l2664:
  3752  007AB0                     ;motor2.c: 202: 
  3753                           	call	_Quiet	;wreg free
  3754  007AB0  EC7A  F034         	call	_delay	;wreg free
  3755  007AB4  ECFF  F034         	
  3756                           l2666:
  3757  007AB8                     		decf	((c:_flag)),c,w
  3758  007AB8  040B               iorwf	((c:_flag+1)),c,w
  3759  007ABA  100C               	btfss	status,2
  3760  007ABC  A4D8               	goto	u2231
  3761  007ABE  EF63  F03D         	goto	u2230
  3762  007AC2  EF65  F03D         
  3763                           u2231:
  3764  007AC6                     	goto	l2672
  3765  007AC6  EF6D  F03D         u2230:
  3766  007ACA                     	
  3767                           l2668:
  3768  007ACA                     	movlw	high(0)
  3769  007ACA  0E00               	movwf	((c:_flag+1)),c
  3770  007ACC  6E0C               	movlw	low(0)
  3771  007ACE  0E00               	movwf	((c:_flag)),c
  3772  007AD0  6E0B               	goto	l78
  3773  007AD2  EFDF  F03E         	
  3774                           l2670:
  3775  007AD6                     	goto	l78
  3776  007AD6  EFDF  F03E         	
  3777                           l172:
  3778  007ADA                     	line	203
  3779                           	
  3780                           l2672:
  3781  007ADA                     ;motor2.c: 203:     PWM1_Start();
  3782                           	call	_Re	;wreg free
  3783  007ADA  ECC4  F034         	call	_delay	;wreg free
  3784  007ADE  ECFF  F034         	
  3785                           l2674:
  3786  007AE2                     		decf	((c:_flag)),c,w
  3787  007AE2  040B               iorwf	((c:_flag+1)),c,w
  3788  007AE4  100C               	btfss	status,2
  3789  007AE6  A4D8               	goto	u2241
  3790  007AE8  EF78  F03D         	goto	u2240
  3791  007AEC  EF7A  F03D         
  3792                           u2241:
  3793  007AF0                     	goto	l2680
  3794  007AF0  EF82  F03D         u2240:
  3795  007AF4                     	
  3796                           l2676:
  3797  007AF4                     	movlw	high(0)
  3798  007AF4  0E00               	movwf	((c:_flag+1)),c
  3799  007AF6  6E0C               	movlw	low(0)
  3800  007AF8  0E00               	movwf	((c:_flag)),c
  3801  007AFA  6E0B               	goto	l78
  3802  007AFC  EFDF  F03E         	
  3803                           l2678:
  3804  007B00                     	goto	l78
  3805  007B00  EFDF  F03E         	
  3806                           l173:
  3807  007B04                     	line	204
  3808                           	
  3809                           l2680:
  3810  007B04                     ;motor2.c: 204:     int i = 0, j = 0, flag = 0;
  3811                           	call	_Quiet	;wreg free
  3812  007B04  EC7A  F034         	call	_delay	;wreg free
  3813  007B08  ECFF  F034         	
  3814                           l2682:
  3815  007B0C                     		decf	((c:_flag)),c,w
  3816  007B0C  040B               iorwf	((c:_flag+1)),c,w
  3817  007B0E  100C               	btfss	status,2
  3818  007B10  A4D8               	goto	u2251
  3819  007B12  EF8D  F03D         	goto	u2250
  3820  007B16  EF8F  F03D         
  3821                           u2251:
  3822  007B1A                     	goto	l2688
  3823  007B1A  EF97  F03D         u2250:
  3824  007B1E                     	
  3825                           l2684:
  3826  007B1E                     	movlw	high(0)
  3827  007B1E  0E00               	movwf	((c:_flag+1)),c
  3828  007B20  6E0C               	movlw	low(0)
  3829  007B22  0E00               	movwf	((c:_flag)),c
  3830  007B24  6E0B               	goto	l78
  3831  007B26  EFDF  F03E         	
  3832                           l2686:
  3833  007B2A                     	goto	l78
  3834  007B2A  EFDF  F03E         	
  3835                           l174:
  3836  007B2E                     	line	205
  3837                           	
  3838                           l2688:
  3839  007B2E                     ;motor2.c: 205: 
  3840                           	call	_Re	;wreg free
  3841  007B2E  ECC4  F034         	call	_delay	;wreg free
  3842  007B32  ECFF  F034         	
  3843                           l2690:
  3844  007B36                     		decf	((c:_flag)),c,w
  3845  007B36  040B               iorwf	((c:_flag+1)),c,w
  3846  007B38  100C               	btfss	status,2
  3847  007B3A  A4D8               	goto	u2261
  3848  007B3C  EFA2  F03D         	goto	u2260
  3849  007B40  EFA4  F03D         
  3850                           u2261:
  3851  007B44                     	goto	l2696
  3852  007B44  EFAC  F03D         u2260:
  3853  007B48                     	
  3854                           l2692:
  3855  007B48                     	movlw	high(0)
  3856  007B48  0E00               	movwf	((c:_flag+1)),c
  3857  007B4A  6E0C               	movlw	low(0)
  3858  007B4C  0E00               	movwf	((c:_flag)),c
  3859  007B4E  6E0B               	goto	l78
  3860  007B50  EFDF  F03E         	
  3861                           l2694:
  3862  007B54                     	goto	l78
  3863  007B54  EFDF  F03E         	
  3864                           l175:
  3865  007B58                     	
  3866                           l2696:
  3867  007B58                     	call	_delay	;wreg free
  3868  007B58  ECFF  F034         	
  3869                           l2698:
  3870  007B5C                     		decf	((c:_flag)),c,w
  3871  007B5C  040B               iorwf	((c:_flag+1)),c,w
  3872  007B5E  100C               	btfss	status,2
  3873  007B60  A4D8               	goto	u2271
  3874  007B62  EFB5  F03D         	goto	u2270
  3875  007B66  EFB7  F03D         
  3876                           u2271:
  3877  007B6A                     	goto	l2704
  3878  007B6A  EFBF  F03D         u2270:
  3879  007B6E                     	
  3880                           l2700:
  3881  007B6E                     	movlw	high(0)
  3882  007B6E  0E00               	movwf	((c:_flag+1)),c
  3883  007B70  6E0C               	movlw	low(0)
  3884  007B72  0E00               	movwf	((c:_flag)),c
  3885  007B74  6E0B               	goto	l78
  3886  007B76  EFDF  F03E         	
  3887                           l2702:
  3888  007B7A                     	goto	l78
  3889  007B7A  EFDF  F03E         	
  3890                           l176:
  3891  007B7E                     	line	206
  3892                           	
  3893                           l2704:
  3894  007B7E                     ;motor2.c: 206:     TRISDbits.RD0 = 1;
  3895                           	call	_Quiet	;wreg free
  3896  007B7E  EC7A  F034         	call	_delay	;wreg free
  3897  007B82  ECFF  F034         	
  3898                           l2706:
  3899  007B86                     		decf	((c:_flag)),c,w
  3900  007B86  040B               iorwf	((c:_flag+1)),c,w
  3901  007B88  100C               	btfss	status,2
  3902  007B8A  A4D8               	goto	u2281
  3903  007B8C  EFCA  F03D         	goto	u2280
  3904  007B90  EFCC  F03D         
  3905                           u2281:
  3906  007B94                     	goto	l2712
  3907  007B94  EFD4  F03D         u2280:
  3908  007B98                     	
  3909                           l2708:
  3910  007B98                     	movlw	high(0)
  3911  007B98  0E00               	movwf	((c:_flag+1)),c
  3912  007B9A  6E0C               	movlw	low(0)
  3913  007B9C  0E00               	movwf	((c:_flag)),c
  3914  007B9E  6E0B               	goto	l78
  3915  007BA0  EFDF  F03E         	
  3916                           l2710:
  3917  007BA4                     	goto	l78
  3918  007BA4  EFDF  F03E         	
  3919                           l177:
  3920  007BA8                     	line	207
  3921                           	
  3922                           l2712:
  3923  007BA8                     ;motor2.c: 207:     TRISDbits.RD1 = 1;
  3924                           	call	_Do	;wreg free
  3925  007BA8  EC91  F034         	call	_delay	;wreg free
  3926  007BAC  ECFF  F034         	
  3927                           l2714:
  3928  007BB0                     		decf	((c:_flag)),c,w
  3929  007BB0  040B               iorwf	((c:_flag+1)),c,w
  3930  007BB2  100C               	btfss	status,2
  3931  007BB4  A4D8               	goto	u2291
  3932  007BB6  EFDF  F03D         	goto	u2290
  3933  007BBA  EFE1  F03D         
  3934                           u2291:
  3935  007BBE                     	goto	l2720
  3936  007BBE  EFE9  F03D         u2290:
  3937  007BC2                     	
  3938                           l2716:
  3939  007BC2                     	movlw	high(0)
  3940  007BC2  0E00               	movwf	((c:_flag+1)),c
  3941  007BC4  6E0C               	movlw	low(0)
  3942  007BC6  0E00               	movwf	((c:_flag)),c
  3943  007BC8  6E0B               	goto	l78
  3944  007BCA  EFDF  F03E         	
  3945                           l2718:
  3946  007BCE                     	goto	l78
  3947  007BCE  EFDF  F03E         	
  3948                           l178:
  3949  007BD2                     	line	208
  3950                           	
  3951                           l2720:
  3952  007BD2                     ;motor2.c: 208:     TRISDbits.RD2 = 1;
  3953                           	call	_Quiet	;wreg free
  3954  007BD2  EC7A  F034         	call	_delay	;wreg free
  3955  007BD6  ECFF  F034         	
  3956                           l2722:
  3957  007BDA                     		decf	((c:_flag)),c,w
  3958  007BDA  040B               iorwf	((c:_flag+1)),c,w
  3959  007BDC  100C               	btfss	status,2
  3960  007BDE  A4D8               	goto	u2301
  3961  007BE0  EFF4  F03D         	goto	u2300
  3962  007BE4  EFF6  F03D         
  3963                           u2301:
  3964  007BE8                     	goto	l2728
  3965  007BE8  EFFE  F03D         u2300:
  3966  007BEC                     	
  3967                           l2724:
  3968  007BEC                     	movlw	high(0)
  3969  007BEC  0E00               	movwf	((c:_flag+1)),c
  3970  007BEE  6E0C               	movlw	low(0)
  3971  007BF0  0E00               	movwf	((c:_flag)),c
  3972  007BF2  6E0B               	goto	l78
  3973  007BF4  EFDF  F03E         	
  3974                           l2726:
  3975  007BF8                     	goto	l78
  3976  007BF8  EFDF  F03E         	
  3977                           l179:
  3978  007BFC                     	line	209
  3979                           	
  3980                           l2728:
  3981  007BFC                     ;motor2.c: 209:     TRISDbits.RD3 = 1;
  3982                           	call	_Mi	;wreg free
  3983  007BFC  ECB3  F034         	call	_delay	;wreg free
  3984  007C00  ECFF  F034         	
  3985                           l2730:
  3986  007C04                     		decf	((c:_flag)),c,w
  3987  007C04  040B               iorwf	((c:_flag+1)),c,w
  3988  007C06  100C               	btfss	status,2
  3989  007C08  A4D8               	goto	u2311
  3990  007C0A  EF09  F03E         	goto	u2310
  3991  007C0E  EF0B  F03E         
  3992                           u2311:
  3993  007C12                     	goto	l2736
  3994  007C12  EF13  F03E         u2310:
  3995  007C16                     	
  3996                           l2732:
  3997  007C16                     	movlw	high(0)
  3998  007C16  0E00               	movwf	((c:_flag+1)),c
  3999  007C18  6E0C               	movlw	low(0)
  4000  007C1A  0E00               	movwf	((c:_flag)),c
  4001  007C1C  6E0B               	goto	l78
  4002  007C1E  EFDF  F03E         	
  4003                           l2734:
  4004  007C22                     	goto	l78
  4005  007C22  EFDF  F03E         	
  4006                           l180:
  4007  007C26                     	line	210
  4008                           	
  4009                           l2736:
  4010  007C26                     ;motor2.c: 210:     TRISCbits.RC3 = 1;
  4011                           	call	_Quiet	;wreg free
  4012  007C26  EC7A  F034         	call	_delay	;wreg free
  4013  007C2A  ECFF  F034         	
  4014                           l2738:
  4015  007C2E                     		decf	((c:_flag)),c,w
  4016  007C2E  040B               iorwf	((c:_flag+1)),c,w
  4017  007C30  100C               	btfss	status,2
  4018  007C32  A4D8               	goto	u2321
  4019  007C34  EF1E  F03E         	goto	u2320
  4020  007C38  EF20  F03E         
  4021                           u2321:
  4022  007C3C                     	goto	l2744
  4023  007C3C  EF28  F03E         u2320:
  4024  007C40                     	
  4025                           l2740:
  4026  007C40                     	movlw	high(0)
  4027  007C40  0E00               	movwf	((c:_flag+1)),c
  4028  007C42  6E0C               	movlw	low(0)
  4029  007C44  0E00               	movwf	((c:_flag)),c
  4030  007C46  6E0B               	goto	l78
  4031  007C48  EFDF  F03E         	
  4032                           l2742:
  4033  007C4C                     	goto	l78
  4034  007C4C  EFDF  F03E         	
  4035                           l181:
  4036  007C50                     	line	211
  4037                           	
  4038                           l2744:
  4039  007C50                     ;motor2.c: 211: 
  4040                           	call	_So	;wreg free
  4041  007C50  ECD5  F034         	call	_delay	;wreg free
  4042  007C54  ECFF  F034         	
  4043                           l2746:
  4044  007C58                     		decf	((c:_flag)),c,w
  4045  007C58  040B               iorwf	((c:_flag+1)),c,w
  4046  007C5A  100C               	btfss	status,2
  4047  007C5C  A4D8               	goto	u2331
  4048  007C5E  EF33  F03E         	goto	u2330
  4049  007C62  EF35  F03E         
  4050                           u2331:
  4051  007C66                     	goto	l2752
  4052  007C66  EF3D  F03E         u2330:
  4053  007C6A                     	
  4054                           l2748:
  4055  007C6A                     	movlw	high(0)
  4056  007C6A  0E00               	movwf	((c:_flag+1)),c
  4057  007C6C  6E0C               	movlw	low(0)
  4058  007C6E  0E00               	movwf	((c:_flag)),c
  4059  007C70  6E0B               	goto	l78
  4060  007C72  EFDF  F03E         	
  4061                           l2750:
  4062  007C76                     	goto	l78
  4063  007C76  EFDF  F03E         	
  4064                           l182:
  4065  007C7A                     	line	212
  4066                           	
  4067                           l2752:
  4068  007C7A                     ;motor2.c: 212: 
  4069                           	call	_Quiet	;wreg free
  4070  007C7A  EC7A  F034         	call	_delay	;wreg free
  4071  007C7E  ECFF  F034         	
  4072                           l2754:
  4073  007C82                     		decf	((c:_flag)),c,w
  4074  007C82  040B               iorwf	((c:_flag+1)),c,w
  4075  007C84  100C               	btfss	status,2
  4076  007C86  A4D8               	goto	u2341
  4077  007C88  EF48  F03E         	goto	u2340
  4078  007C8C  EF4A  F03E         
  4079                           u2341:
  4080  007C90                     	goto	l2760
  4081  007C90  EF52  F03E         u2340:
  4082  007C94                     	
  4083                           l2756:
  4084  007C94                     	movlw	high(0)
  4085  007C94  0E00               	movwf	((c:_flag+1)),c
  4086  007C96  6E0C               	movlw	low(0)
  4087  007C98  0E00               	movwf	((c:_flag)),c
  4088  007C9A  6E0B               	goto	l78
  4089  007C9C  EFDF  F03E         	
  4090                           l2758:
  4091  007CA0                     	goto	l78
  4092  007CA0  EFDF  F03E         	
  4093                           l183:
  4094  007CA4                     	line	213
  4095                           	
  4096                           l2760:
  4097  007CA4                     ;motor2.c: 213: 
  4098                           	call	_So	;wreg free
  4099  007CA4  ECD5  F034         	call	_delay	;wreg free
  4100  007CA8  ECFF  F034         	
  4101                           l2762:
  4102  007CAC                     		decf	((c:_flag)),c,w
  4103  007CAC  040B               iorwf	((c:_flag+1)),c,w
  4104  007CAE  100C               	btfss	status,2
  4105  007CB0  A4D8               	goto	u2351
  4106  007CB2  EF5D  F03E         	goto	u2350
  4107  007CB6  EF5F  F03E         
  4108                           u2351:
  4109  007CBA                     	goto	l2768
  4110  007CBA  EF67  F03E         u2350:
  4111  007CBE                     	
  4112                           l2764:
  4113  007CBE                     	movlw	high(0)
  4114  007CBE  0E00               	movwf	((c:_flag+1)),c
  4115  007CC0  6E0C               	movlw	low(0)
  4116  007CC2  0E00               	movwf	((c:_flag)),c
  4117  007CC4  6E0B               	goto	l78
  4118  007CC6  EFDF  F03E         	
  4119                           l2766:
  4120  007CCA                     	goto	l78
  4121  007CCA  EFDF  F03E         	
  4122                           l184:
  4123  007CCE                     	line	214
  4124                           	
  4125                           l2768:
  4126  007CCE                     ;motor2.c: 214:     TRISA = 0;
  4127                           	call	_Quiet	;wreg free
  4128  007CCE  EC7A  F034         	call	_delay	;wreg free
  4129  007CD2  ECFF  F034         	
  4130                           l2770:
  4131  007CD6                     		decf	((c:_flag)),c,w
  4132  007CD6  040B               iorwf	((c:_flag+1)),c,w
  4133  007CD8  100C               	btfss	status,2
  4134  007CDA  A4D8               	goto	u2361
  4135  007CDC  EF72  F03E         	goto	u2360
  4136  007CE0  EF74  F03E         
  4137                           u2361:
  4138  007CE4                     	goto	l2776
  4139  007CE4  EF7C  F03E         u2360:
  4140  007CE8                     	
  4141                           l2772:
  4142  007CE8                     	movlw	high(0)
  4143  007CE8  0E00               	movwf	((c:_flag+1)),c
  4144  007CEA  6E0C               	movlw	low(0)
  4145  007CEC  0E00               	movwf	((c:_flag)),c
  4146  007CEE  6E0B               	goto	l78
  4147  007CF0  EFDF  F03E         	
  4148                           l2774:
  4149  007CF4                     	goto	l78
  4150  007CF4  EFDF  F03E         	
  4151                           l185:
  4152  007CF8                     	line	215
  4153                           	
  4154                           l2776:
  4155  007CF8                     ;motor2.c: 215:     LATA = 0;
  4156                           	call	_Do	;wreg free
  4157  007CF8  EC91  F034         	call	_delay	;wreg free
  4158  007CFC  ECFF  F034         	
  4159                           l2778:
  4160  007D00                     		decf	((c:_flag)),c,w
  4161  007D00  040B               iorwf	((c:_flag+1)),c,w
  4162  007D02  100C               	btfss	status,2
  4163  007D04  A4D8               	goto	u2371
  4164  007D06  EF87  F03E         	goto	u2370
  4165  007D0A  EF89  F03E         
  4166                           u2371:
  4167  007D0E                     	goto	l2784
  4168  007D0E  EF91  F03E         u2370:
  4169  007D12                     	
  4170                           l2780:
  4171  007D12                     	movlw	high(0)
  4172  007D12  0E00               	movwf	((c:_flag+1)),c
  4173  007D14  6E0C               	movlw	low(0)
  4174  007D16  0E00               	movwf	((c:_flag)),c
  4175  007D18  6E0B               	goto	l78
  4176  007D1A  EFDF  F03E         	
  4177                           l2782:
  4178  007D1E                     	goto	l78
  4179  007D1E  EFDF  F03E         	
  4180                           l186:
  4181  007D22                     	
  4182                           l2784:
  4183  007D22                     	call	_delay	;wreg free
  4184  007D22  ECFF  F034         	
  4185                           l2786:
  4186  007D26                     		decf	((c:_flag)),c,w
  4187  007D26  040B               iorwf	((c:_flag+1)),c,w
  4188  007D28  100C               	btfss	status,2
  4189  007D2A  A4D8               	goto	u2381
  4190  007D2C  EF9A  F03E         	goto	u2380
  4191  007D30  EF9C  F03E         
  4192                           u2381:
  4193  007D34                     	goto	l2792
  4194  007D34  EFA4  F03E         u2380:
  4195  007D38                     	
  4196                           l2788:
  4197  007D38                     	movlw	high(0)
  4198  007D38  0E00               	movwf	((c:_flag+1)),c
  4199  007D3A  6E0C               	movlw	low(0)
  4200  007D3C  0E00               	movwf	((c:_flag)),c
  4201  007D3E  6E0B               	goto	l78
  4202  007D40  EFDF  F03E         	
  4203                           l2790:
  4204  007D44                     	goto	l78
  4205  007D44  EFDF  F03E         	
  4206                           l187:
  4207  007D48                     	
  4208                           l2792:
  4209  007D48                     	call	_delay	;wreg free
  4210  007D48  ECFF  F034         	
  4211                           l2794:
  4212  007D4C                     		decf	((c:_flag)),c,w
  4213  007D4C  040B               iorwf	((c:_flag+1)),c,w
  4214  007D4E  100C               	btfss	status,2
  4215  007D50  A4D8               	goto	u2391
  4216  007D52  EFAD  F03E         	goto	u2390
  4217  007D56  EFAF  F03E         
  4218                           u2391:
  4219  007D5A                     	goto	l2800
  4220  007D5A  EFB7  F03E         u2390:
  4221  007D5E                     	
  4222                           l2796:
  4223  007D5E                     	movlw	high(0)
  4224  007D5E  0E00               	movwf	((c:_flag+1)),c
  4225  007D60  6E0C               	movlw	low(0)
  4226  007D62  0E00               	movwf	((c:_flag)),c
  4227  007D64  6E0B               	goto	l78
  4228  007D66  EFDF  F03E         	
  4229                           l2798:
  4230  007D6A                     	goto	l78
  4231  007D6A  EFDF  F03E         	
  4232                           l188:
  4233  007D6E                     	
  4234                           l2800:
  4235  007D6E                     	call	_delay	;wreg free
  4236  007D6E  ECFF  F034         	
  4237                           l2802:
  4238  007D72                     		decf	((c:_flag)),c,w
  4239  007D72  040B               iorwf	((c:_flag+1)),c,w
  4240  007D74  100C               	btfss	status,2
  4241  007D76  A4D8               	goto	u2401
  4242  007D78  EFC0  F03E         	goto	u2400
  4243  007D7C  EFC2  F03E         
  4244                           u2401:
  4245  007D80                     	goto	l2808
  4246  007D80  EFCA  F03E         u2400:
  4247  007D84                     	
  4248                           l2804:
  4249  007D84                     	movlw	high(0)
  4250  007D84  0E00               	movwf	((c:_flag+1)),c
  4251  007D86  6E0C               	movlw	low(0)
  4252  007D88  0E00               	movwf	((c:_flag)),c
  4253  007D8A  6E0B               	goto	l78
  4254  007D8C  EFDF  F03E         	
  4255                           l2806:
  4256  007D90                     	goto	l78
  4257  007D90  EFDF  F03E         	
  4258                           l189:
  4259  007D94                     	line	216
  4260                           	
  4261                           l2808:
  4262  007D94                     ;motor2.c: 216:     while(1)
  4263                           	call	_Quiet	;wreg free
  4264  007D94  EC7A  F034         	call	_delay	;wreg free
  4265  007D98  ECFF  F034         	
  4266                           l2810:
  4267  007D9C                     		decf	((c:_flag)),c,w
  4268  007D9C  040B               iorwf	((c:_flag+1)),c,w
  4269  007D9E  100C               	btfss	status,2
  4270  007DA0  A4D8               	goto	u2411
  4271  007DA2  EFD5  F03E         	goto	u2410
  4272  007DA6  EFD7  F03E         
  4273                           u2411:
  4274  007DAA                     	goto	l78
  4275  007DAA  EFDF  F03E         u2410:
  4276  007DAE                     	
  4277                           l2812:
  4278  007DAE                     	movlw	high(0)
  4279  007DAE  0E00               	movwf	((c:_flag+1)),c
  4280  007DB0  6E0C               	movlw	low(0)
  4281  007DB2  0E00               	movwf	((c:_flag)),c
  4282  007DB4  6E0B               	goto	l78
  4283  007DB6  EFDF  F03E         	
  4284                           l2814:
  4285  007DBA                     	goto	l78
  4286  007DBA  EFDF  F03E         	
  4287                           l190:
  4288  007DBE                     	line	217
  4289                           	
  4290                           l78:
  4291  007DBE                     	return	;funcret
  4292  007DBE  0012               	opt stack 0
  4293                           GLOBAL	__end_of_small_bee
  4294                           	__end_of_small_bee:
  4295  007DC0                     	signat	_small_bee,89
  4296                           	global	_delay
  4297                           
  4298 ;; *************** function _delay *****************
  4299 ;; Defined at:
  4300 ;;		line 107 in file "motor2.c"
  4301 ;; Parameters:    Size  Location     Type
  4302 ;;		None
  4303 ;; Auto vars:     Size  Location     Type
  4304 ;;  i               2    0[COMRAM] int 
  4305 ;; Return value:  Size  Location     Type
  4306 ;;                  1    wreg      void 
  4307 ;; Registers used:
  4308 ;;		wreg, status,2, status,0
  4309 ;; Tracked objects:
  4310 ;;		On entry : 0/0
  4311 ;;		On exit  : 0/0
  4312 ;;		Unchanged: 0/0
  4313 ;; Data sizes:     COMRAM   BANK0   BANK1   BANK2   BANK3   BANK4   BANK5
  4314 ;;      Params:         0       0       0       0       0       0       0
  4315 ;;      Locals:         2       0       0       0       0       0       0
  4316 ;;      Temps:          0       0       0       0       0       0       0
  4317 ;;      Totals:         2       0       0       0       0       0       0
  4318 ;;Total ram usage:        2 bytes
  4319 ;; Hardware stack levels used:    1
  4320 ;; This function calls:
  4321 ;;		Nothing
  4322 ;; This function is called by:
  4323 ;;		_small_bee
  4324 ;; This function uses a non-reentrant model
  4325 ;;
  4326                           psect	text2,class=CODE,space=0,reloc=2,group=0
  4327                           	line	107
  4328                           global __ptext2
  4329                           __ptext2:
  4330  0069FE                     psect	text2
  4331                           	file	"motor2.c"
  4332                           	line	107
  4333                           	global	__size_of_delay
  4334                           	__size_of_delay	equ	__end_of_delay-_delay
  4335  0000                     	
  4336                           _delay:
  4337  0069FE                     ;incstack = 0
  4338                           	opt	stack 29
  4339                           	line	110
  4340                           	
  4341                           l912:
  4342  0069FE                     ;motor2.c: 109:     Quiet(); delay();if(flag == 1){flag = 0;return;};motor2.c: 110:     
                                 Re(); delay();if(flag == 1){flag = 0;return;} delay();if(flag == 1){flag = 0;return;}
  4343                           	movlw	high(0)
  4344  0069FE  0E00               	movwf	((c:delay@i+1)),c
  4345  006A00  6E02               	movlw	low(0)
  4346  006A02  0E00               	movwf	((c:delay@i)),c
  4347  006A04  6E01               	
  4348                           l914:
  4349  006A06                     	btfsc	((c:delay@i+1)),c,7
  4350  006A06  BE02               	goto	u31
  4351  006A08  EF0F  F035         	movlw	136
  4352  006A0C  0E88               	subwf	 ((c:delay@i)),c,w
  4353  006A0E  5C01               	movlw	19
  4354  006A10  0E13               	subwfb	((c:delay@i+1)),c,w
  4355  006A12  5802               	btfss	status,0
  4356  006A14  A0D8               	goto	u31
  4357  006A16  EF0F  F035         	goto	u30
  4358  006A1A  EF11  F035         
  4359                           u31:
  4360  006A1E                     	goto	l69
  4361  006A1E  EF15  F035         u30:
  4362  006A22                     	goto	l74
  4363  006A22  EF4B  F035         	
  4364                           l916:
  4365  006A26                     	goto	l74
  4366  006A26  EF4B  F035         	
  4367                           l69:
  4368  006A2A                     	line	112
  4369                           ;motor2.c: 111:     Quiet(); delay();if(flag == 1){flag = 0;return;};motor2.c: 112:     
                                 Do(); delay();if(flag == 1){flag = 0;return;}
  4370                           	btfss	c:(31769/8),(31769)&7	;volatile
  4371  006A2A  A283               	goto	u41
  4372  006A2C  EF1A  F035         	goto	u40
  4373  006A30  EF1C  F035         u41:
  4374  006A34                     	goto	l924
  4375  006A34  EF33  F035         u40:
  4376  006A38                     	
  4377                           l918:
  4378  006A38                     	btfss	c:(31770/8),(31770)&7	;volatile
  4379  006A38  A483               	goto	u51
  4380  006A3A  EF21  F035         	goto	u50
  4381  006A3E  EF23  F035         u51:
  4382  006A42                     	goto	l924
  4383  006A42  EF33  F035         u50:
  4384  006A46                     	
  4385                           l920:
  4386  006A46                     	btfss	c:(31771/8),(31771)&7	;volatile
  4387  006A46  A683               	goto	u61
  4388  006A48  EF28  F035         	goto	u60
  4389  006A4C  EF2A  F035         u61:
  4390  006A50                     	goto	l924
  4391  006A50  EF33  F035         u60:
  4392  006A54                     	
  4393                           l922:
  4394  006A54                     	btfsc	c:(31763/8),(31763)&7	;volatile
  4395  006A54  B682               	goto	u71
  4396  006A56  EF2F  F035         	goto	u70
  4397  006A5A  EF31  F035         u71:
  4398  006A5E                     	goto	l926
  4399  006A5E  EF39  F035         u70:
  4400  006A62                     	goto	l924
  4401  006A62  EF33  F035         	
  4402                           l73:
  4403  006A66                     	line	113
  4404                           	
  4405                           l924:
  4406  006A66                     ;motor2.c: 113:     Quiet(); delay();if(flag == 1){flag = 0;return;}
  4407                           	movlw	high(01h)
  4408  006A66  0E00               	movwf	((c:_flag+1)),c
  4409  006A68  6E0C               	movlw	low(01h)
  4410  006A6A  0E01               	movwf	((c:_flag)),c
  4411  006A6C  6E0B               	goto	l926
  4412  006A6E  EF39  F035         	
  4413                           l71:
  4414  006A72                     	line	114
  4415                           	
  4416                           l926:
  4417  006A72                     ;motor2.c: 114:     Re(); delay();if(flag == 1){flag = 0;return;}
  4418                           	infsnz	((c:delay@i)),c
  4419  006A72  4A01               	incf	((c:delay@i+1)),c
  4420  006A74  2A02               	
  4421                           l928:
  4422  006A76                     	btfsc	((c:delay@i+1)),c,7
  4423  006A76  BE02               	goto	u81
  4424  006A78  EF47  F035         	movlw	136
  4425  006A7C  0E88               	subwf	 ((c:delay@i)),c,w
  4426  006A7E  5C01               	movlw	19
  4427  006A80  0E13               	subwfb	((c:delay@i+1)),c,w
  4428  006A82  5802               	btfss	status,0
  4429  006A84  A0D8               	goto	u81
  4430  006A86  EF47  F035         	goto	u80
  4431  006A8A  EF49  F035         
  4432                           u81:
  4433  006A8E                     	goto	l69
  4434  006A8E  EF15  F035         u80:
  4435  006A92                     	goto	l74
  4436  006A92  EF4B  F035         	
  4437                           l70:
  4438  006A96                     	line	115
  4439                           	
  4440                           l74:
  4441  006A96                     	return	;funcret
  4442  006A96  0012               	opt stack 0
  4443                           GLOBAL	__end_of_delay
  4444                           	__end_of_delay:
  4445  006A98                     	signat	_delay,89
  4446                           	global	_So
  4447                           
  4448 ;; *************** function _So *****************
  4449 ;; Defined at:
  4450 ;;		line 98 in file "motor2.c"
  4451 ;; Parameters:    Size  Location     Type
  4452 ;;		None
  4453 ;; Auto vars:     Size  Location     Type
  4454 ;;		None
  4455 ;; Return value:  Size  Location     Type
  4456 ;;                  1    wreg      void 
  4457 ;; Registers used:
  4458 ;;		wreg, status,2, status,0, cstack
  4459 ;; Tracked objects:
  4460 ;;		On entry : 0/0
  4461 ;;		On exit  : 0/0
  4462 ;;		Unchanged: 0/0
  4463 ;; Data sizes:     COMRAM   BANK0   BANK1   BANK2   BANK3   BANK4   BANK5
  4464 ;;      Params:         0       0       0       0       0       0       0
  4465 ;;      Locals:         0       0       0       0       0       0       0
  4466 ;;      Temps:          0       0       0       0       0       0       0
  4467 ;;      Totals:         0       0       0       0       0       0       0
  4468 ;;Total ram usage:        0 bytes
  4469 ;; Hardware stack levels used:    1
  4470 ;; Hardware stack levels required when called:    1
  4471 ;; This function calls:
  4472 ;;		_PWM1_Duty
  4473 ;;		_PWM1_Init
  4474 ;; This function is called by:
  4475 ;;		_small_bee
  4476 ;;		_main
  4477 ;; This function uses a non-reentrant model
  4478 ;;
  4479                           psect	text3,class=CODE,space=0,reloc=2,group=0
  4480                           	line	98
  4481                           global __ptext3
  4482                           __ptext3:
  4483  0069AA                     psect	text3
  4484                           	file	"motor2.c"
  4485                           	line	98
  4486                           	global	__size_of_So
  4487                           	__size_of_So	equ	__end_of_So-_So
  4488  0000                     	
  4489                           _So:
  4490  0069AA                     ;incstack = 0
  4491                           	opt	stack 28
  4492                           	line	100
  4493                           	
  4494                           l1906:
  4495  0069AA                     ;motor2.c: 100:     So(); delay();if(flag == 1){flag = 0;return;}
  4496                           	movlw	low(091h)
  4497  0069AA  0E91               	movwf	((c:PWM1_Init@setDuty)),c
  4498  0069AC  6E01               	movlw	high(091h)
  4499  0069AE  0E00               	movwf	((c:PWM1_Init@setDuty+1)),c
  4500  0069B0  6E02               	movlw	low highword(091h)
  4501  0069B2  0E00               	movwf	((c:PWM1_Init@setDuty+2)),c
  4502  0069B4  6E03               	movlw	high highword(091h)
  4503  0069B6  0E00               	movwf	((c:PWM1_Init@setDuty+3)),c
  4504  0069B8  6E04               	call	_PWM1_Init	;wreg free
  4505  0069BA  EC72  F034         	line	101
  4506                           	
  4507                           l1908:
  4508  0069BE                     ;motor2.c: 101:     Quiet(); delay();if(flag == 1){flag = 0;return;}
  4509                           	movlw	high(0FAh)
  4510  0069BE  0E00               	movwf	((c:PWM1_Duty@duty+1)),c
  4511  0069C0  6E02               	movlw	low(0FAh)
  4512  0069C2  0EFA               	movwf	((c:PWM1_Duty@duty)),c
  4513  0069C4  6E01               	call	_PWM1_Duty	;wreg free
  4514  0069C6  ECE6  F034         	line	102
  4515                           	
  4516                           l63:
  4517  0069CA                     	return	;funcret
  4518  0069CA  0012               	opt stack 0
  4519                           GLOBAL	__end_of_So
  4520                           	__end_of_So:
  4521  0069CC                     	signat	_So,89
  4522                           	global	_Re
  4523                           
  4524 ;; *************** function _Re *****************
  4525 ;; Defined at:
  4526 ;;		line 83 in file "motor2.c"
  4527 ;; Parameters:    Size  Location     Type
  4528 ;;		None
  4529 ;; Auto vars:     Size  Location     Type
  4530 ;;		None
  4531 ;; Return value:  Size  Location     Type
  4532 ;;                  1    wreg      void 
  4533 ;; Registers used:
  4534 ;;		wreg, status,2, status,0, cstack
  4535 ;; Tracked objects:
  4536 ;;		On entry : 0/0
  4537 ;;		On exit  : 0/0
  4538 ;;		Unchanged: 0/0
  4539 ;; Data sizes:     COMRAM   BANK0   BANK1   BANK2   BANK3   BANK4   BANK5
  4540 ;;      Params:         0       0       0       0       0       0       0
  4541 ;;      Locals:         0       0       0       0       0       0       0
  4542 ;;      Temps:          0       0       0       0       0       0       0
  4543 ;;      Totals:         0       0       0       0       0       0       0
  4544 ;;Total ram usage:        0 bytes
  4545 ;; Hardware stack levels used:    1
  4546 ;; Hardware stack levels required when called:    1
  4547 ;; This function calls:
  4548 ;;		_PWM1_Duty
  4549 ;;		_PWM1_Init
  4550 ;; This function is called by:
  4551 ;;		_small_bee
  4552 ;;		_main
  4553 ;; This function uses a non-reentrant model
  4554 ;;
  4555                           psect	text4,class=CODE,space=0,reloc=2,group=0
  4556                           	line	83
  4557                           global __ptext4
  4558                           __ptext4:
  4559  006988                     psect	text4
  4560                           	file	"motor2.c"
  4561                           	line	83
  4562                           	global	__size_of_Re
  4563                           	__size_of_Re	equ	__end_of_Re-_Re
  4564  0000                     	
  4565                           _Re:
  4566  006988                     ;incstack = 0
  4567                           	opt	stack 28
  4568                           	line	85
  4569                           	
  4570                           l1894:
  4571  006988                     ;motor2.c: 85: {
  4572                           	movlw	low(0C7h)
  4573  006988  0EC7               	movwf	((c:PWM1_Init@setDuty)),c
  4574  00698A  6E01               	movlw	high(0C7h)
  4575  00698C  0E00               	movwf	((c:PWM1_Init@setDuty+1)),c
  4576  00698E  6E02               	movlw	low highword(0C7h)
  4577  006990  0E00               	movwf	((c:PWM1_Init@setDuty+2)),c
  4578  006992  6E03               	movlw	high highword(0C7h)
  4579  006994  0E00               	movwf	((c:PWM1_Init@setDuty+3)),c
  4580  006996  6E04               	call	_PWM1_Init	;wreg free
  4581  006998  EC72  F034         	line	86
  4582                           	
  4583                           l1896:
  4584  00699C                     ;motor2.c: 86:     PWM1_Duty(0);
  4585                           	movlw	high(0FAh)
  4586  00699C  0E00               	movwf	((c:PWM1_Duty@duty+1)),c
  4587  00699E  6E02               	movlw	low(0FAh)
  4588  0069A0  0EFA               	movwf	((c:PWM1_Duty@duty)),c
  4589  0069A2  6E01               	call	_PWM1_Duty	;wreg free
  4590  0069A4  ECE6  F034         	line	87
  4591                           	
  4592                           l54:
  4593  0069A8                     	return	;funcret
  4594  0069A8  0012               	opt stack 0
  4595                           GLOBAL	__end_of_Re
  4596                           	__end_of_Re:
  4597  0069AA                     	signat	_Re,89
  4598                           	global	_Quiet
  4599                           
  4600 ;; *************** function _Quiet *****************
  4601 ;; Defined at:
  4602 ;;		line 103 in file "motor2.c"
  4603 ;; Parameters:    Size  Location     Type
  4604 ;;		None
  4605 ;; Auto vars:     Size  Location     Type
  4606 ;;		None
  4607 ;; Return value:  Size  Location     Type
  4608 ;;                  1    wreg      void 
  4609 ;; Registers used:
  4610 ;;		wreg, status,2, status,0, cstack
  4611 ;; Tracked objects:
  4612 ;;		On entry : 0/0
  4613 ;;		On exit  : 0/0
  4614 ;;		Unchanged: 0/0
  4615 ;; Data sizes:     COMRAM   BANK0   BANK1   BANK2   BANK3   BANK4   BANK5
  4616 ;;      Params:         0       0       0       0       0       0       0
  4617 ;;      Locals:         0       0       0       0       0       0       0
  4618 ;;      Temps:          0       0       0       0       0       0       0
  4619 ;;      Totals:         0       0       0       0       0       0       0
  4620 ;;Total ram usage:        0 bytes
  4621 ;; Hardware stack levels used:    1
  4622 ;; Hardware stack levels required when called:    1
  4623 ;; This function calls:
  4624 ;;		_PWM1_Duty
  4625 ;; This function is called by:
  4626 ;;		_small_bee
  4627 ;; This function uses a non-reentrant model
  4628 ;;
  4629                           psect	text5,class=CODE,space=0,reloc=2,group=0
  4630                           	line	103
  4631                           global __ptext5
  4632                           __ptext5:
  4633  0068F4                     psect	text5
  4634                           	file	"motor2.c"
  4635                           	line	103
  4636                           	global	__size_of_Quiet
  4637                           	__size_of_Quiet	equ	__end_of_Quiet-_Quiet
  4638  0000                     	
  4639                           _Quiet:
  4640  0068F4                     ;incstack = 0
  4641                           	opt	stack 28
  4642                           	line	105
  4643                           	
  4644                           l1910:
  4645  0068F4                     ;motor2.c: 105:     Quiet(); delay();if(flag == 1){flag = 0;return;}
  4646                           	movlw	high(0)
  4647  0068F4  0E00               	movwf	((c:PWM1_Duty@duty+1)),c
  4648  0068F6  6E02               	movlw	low(0)
  4649  0068F8  0E00               	movwf	((c:PWM1_Duty@duty)),c
  4650  0068FA  6E01               	call	_PWM1_Duty	;wreg free
  4651  0068FC  ECE6  F034         	line	106
  4652                           	
  4653                           l66:
  4654  006900                     	return	;funcret
  4655  006900  0012               	opt stack 0
  4656                           GLOBAL	__end_of_Quiet
  4657                           	__end_of_Quiet:
  4658  006902                     	signat	_Quiet,89
  4659                           	global	_Mi
  4660                           
  4661 ;; *************** function _Mi *****************
  4662 ;; Defined at:
  4663 ;;		line 88 in file "motor2.c"
  4664 ;; Parameters:    Size  Location     Type
  4665 ;;		None
  4666 ;; Auto vars:     Size  Location     Type
  4667 ;;		None
  4668 ;; Return value:  Size  Location     Type
  4669 ;;                  1    wreg      void 
  4670 ;; Registers used:
  4671 ;;		wreg, status,2, status,0, cstack
  4672 ;; Tracked objects:
  4673 ;;		On entry : 0/0
  4674 ;;		On exit  : 0/0
  4675 ;;		Unchanged: 0/0
  4676 ;; Data sizes:     COMRAM   BANK0   BANK1   BANK2   BANK3   BANK4   BANK5
  4677 ;;      Params:         0       0       0       0       0       0       0
  4678 ;;      Locals:         0       0       0       0       0       0       0
  4679 ;;      Temps:          0       0       0       0       0       0       0
  4680 ;;      Totals:         0       0       0       0       0       0       0
  4681 ;;Total ram usage:        0 bytes
  4682 ;; Hardware stack levels used:    1
  4683 ;; Hardware stack levels required when called:    1
  4684 ;; This function calls:
  4685 ;;		_PWM1_Duty
  4686 ;;		_PWM1_Init
  4687 ;; This function is called by:
  4688 ;;		_small_bee
  4689 ;;		_main
  4690 ;; This function uses a non-reentrant model
  4691 ;;
  4692                           psect	text6,class=CODE,space=0,reloc=2,group=0
  4693                           	line	88
  4694                           global __ptext6
  4695                           __ptext6:
  4696  006966                     psect	text6
  4697                           	file	"motor2.c"
  4698                           	line	88
  4699                           	global	__size_of_Mi
  4700                           	__size_of_Mi	equ	__end_of_Mi-_Mi
  4701  0000                     	
  4702                           _Mi:
  4703  006966                     ;incstack = 0
  4704                           	opt	stack 28
  4705                           	line	90
  4706                           	
  4707                           l1898:
  4708  006966                     ;motor2.c: 90:     int i;
  4709                           	movlw	low(0AFh)
  4710  006966  0EAF               	movwf	((c:PWM1_Init@setDuty)),c
  4711  006968  6E01               	movlw	high(0AFh)
  4712  00696A  0E00               	movwf	((c:PWM1_Init@setDuty+1)),c
  4713  00696C  6E02               	movlw	low highword(0AFh)
  4714  00696E  0E00               	movwf	((c:PWM1_Init@setDuty+2)),c
  4715  006970  6E03               	movlw	high highword(0AFh)
  4716  006972  0E00               	movwf	((c:PWM1_Init@setDuty+3)),c
  4717  006974  6E04               	call	_PWM1_Init	;wreg free
  4718  006976  EC72  F034         	line	91
  4719                           	
  4720                           l1900:
  4721  00697A                     ;motor2.c: 91:     for(i = 0; i < 5000; i++)
  4722                           	movlw	high(0FAh)
  4723  00697A  0E00               	movwf	((c:PWM1_Duty@duty+1)),c
  4724  00697C  6E02               	movlw	low(0FAh)
  4725  00697E  0EFA               	movwf	((c:PWM1_Duty@duty)),c
  4726  006980  6E01               	call	_PWM1_Duty	;wreg free
  4727  006982  ECE6  F034         	line	92
  4728                           	
  4729                           l57:
  4730  006986                     	return	;funcret
  4731  006986  0012               	opt stack 0
  4732                           GLOBAL	__end_of_Mi
  4733                           	__end_of_Mi:
  4734  006988                     	signat	_Mi,89
  4735                           	global	_Fa
  4736                           
  4737 ;; *************** function _Fa *****************
  4738 ;; Defined at:
  4739 ;;		line 93 in file "motor2.c"
  4740 ;; Parameters:    Size  Location     Type
  4741 ;;		None
  4742 ;; Auto vars:     Size  Location     Type
  4743 ;;		None
  4744 ;; Return value:  Size  Location     Type
  4745 ;;                  1    wreg      void 
  4746 ;; Registers used:
  4747 ;;		wreg, status,2, status,0, cstack
  4748 ;; Tracked objects:
  4749 ;;		On entry : 0/0
  4750 ;;		On exit  : 0/0
  4751 ;;		Unchanged: 0/0
  4752 ;; Data sizes:     COMRAM   BANK0   BANK1   BANK2   BANK3   BANK4   BANK5
  4753 ;;      Params:         0       0       0       0       0       0       0
  4754 ;;      Locals:         0       0       0       0       0       0       0
  4755 ;;      Temps:          0       0       0       0       0       0       0
  4756 ;;      Totals:         0       0       0       0       0       0       0
  4757 ;;Total ram usage:        0 bytes
  4758 ;; Hardware stack levels used:    1
  4759 ;; Hardware stack levels required when called:    1
  4760 ;; This function calls:
  4761 ;;		_PWM1_Duty
  4762 ;;		_PWM1_Init
  4763 ;; This function is called by:
  4764 ;;		_small_bee
  4765 ;;		_main
  4766 ;; This function uses a non-reentrant model
  4767 ;;
  4768                           psect	text7,class=CODE,space=0,reloc=2,group=0
  4769                           	line	93
  4770                           global __ptext7
  4771                           __ptext7:
  4772  006944                     psect	text7
  4773                           	file	"motor2.c"
  4774                           	line	93
  4775                           	global	__size_of_Fa
  4776                           	__size_of_Fa	equ	__end_of_Fa-_Fa
  4777  0000                     	
  4778                           _Fa:
  4779  006944                     ;incstack = 0
  4780                           	opt	stack 28
  4781                           	line	95
  4782                           	
  4783                           l1902:
  4784  006944                     ;motor2.c: 95:     }
  4785                           	movlw	low(0A5h)
  4786  006944  0EA5               	movwf	((c:PWM1_Init@setDuty)),c
  4787  006946  6E01               	movlw	high(0A5h)
  4788  006948  0E00               	movwf	((c:PWM1_Init@setDuty+1)),c
  4789  00694A  6E02               	movlw	low highword(0A5h)
  4790  00694C  0E00               	movwf	((c:PWM1_Init@setDuty+2)),c
  4791  00694E  6E03               	movlw	high highword(0A5h)
  4792  006950  0E00               	movwf	((c:PWM1_Init@setDuty+3)),c
  4793  006952  6E04               	call	_PWM1_Init	;wreg free
  4794  006954  EC72  F034         	line	96
  4795                           	
  4796                           l1904:
  4797  006958                     ;motor2.c: 96: }
  4798                           	movlw	high(0FAh)
  4799  006958  0E00               	movwf	((c:PWM1_Duty@duty+1)),c
  4800  00695A  6E02               	movlw	low(0FAh)
  4801  00695C  0EFA               	movwf	((c:PWM1_Duty@duty)),c
  4802  00695E  6E01               	call	_PWM1_Duty	;wreg free
  4803  006960  ECE6  F034         	line	97
  4804                           	
  4805                           l60:
  4806  006964                     	return	;funcret
  4807  006964  0012               	opt stack 0
  4808                           GLOBAL	__end_of_Fa
  4809                           	__end_of_Fa:
  4810  006966                     	signat	_Fa,89
  4811                           	global	_Do
  4812                           
  4813 ;; *************** function _Do *****************
  4814 ;; Defined at:
  4815 ;;		line 78 in file "motor2.c"
  4816 ;; Parameters:    Size  Location     Type
  4817 ;;		None
  4818 ;; Auto vars:     Size  Location     Type
  4819 ;;		None
  4820 ;; Return value:  Size  Location     Type
  4821 ;;                  1    wreg      void 
  4822 ;; Registers used:
  4823 ;;		wreg, status,2, status,0, cstack
  4824 ;; Tracked objects:
  4825 ;;		On entry : 0/0
  4826 ;;		On exit  : 0/0
  4827 ;;		Unchanged: 0/0
  4828 ;; Data sizes:     COMRAM   BANK0   BANK1   BANK2   BANK3   BANK4   BANK5
  4829 ;;      Params:         0       0       0       0       0       0       0
  4830 ;;      Locals:         0       0       0       0       0       0       0
  4831 ;;      Temps:          0       0       0       0       0       0       0
  4832 ;;      Totals:         0       0       0       0       0       0       0
  4833 ;;Total ram usage:        0 bytes
  4834 ;; Hardware stack levels used:    1
  4835 ;; Hardware stack levels required when called:    1
  4836 ;; This function calls:
  4837 ;;		_PWM1_Duty
  4838 ;;		_PWM1_Init
  4839 ;; This function is called by:
  4840 ;;		_small_bee
  4841 ;;		_main
  4842 ;; This function uses a non-reentrant model
  4843 ;;
  4844                           psect	text8,class=CODE,space=0,reloc=2,group=0
  4845                           	line	78
  4846                           global __ptext8
  4847                           __ptext8:
  4848  006922                     psect	text8
  4849                           	file	"motor2.c"
  4850                           	line	78
  4851                           	global	__size_of_Do
  4852                           	__size_of_Do	equ	__end_of_Do-_Do
  4853  0000                     	
  4854                           _Do:
  4855  006922                     ;incstack = 0
  4856                           	opt	stack 28
  4857                           	line	80
  4858                           	
  4859                           l1890:
  4860  006922                     ;motor2.c: 80: {
  4861                           	movlw	low(0E0h)
  4862  006922  0EE0               	movwf	((c:PWM1_Init@setDuty)),c
  4863  006924  6E01               	movlw	high(0E0h)
  4864  006926  0E00               	movwf	((c:PWM1_Init@setDuty+1)),c
  4865  006928  6E02               	movlw	low highword(0E0h)
  4866  00692A  0E00               	movwf	((c:PWM1_Init@setDuty+2)),c
  4867  00692C  6E03               	movlw	high highword(0E0h)
  4868  00692E  0E00               	movwf	((c:PWM1_Init@setDuty+3)),c
  4869  006930  6E04               	call	_PWM1_Init	;wreg free
  4870  006932  EC72  F034         	line	81
  4871                           	
  4872                           l1892:
  4873  006936                     ;motor2.c: 81:     PWM1_Init(145);
  4874                           	movlw	high(0FAh)
  4875  006936  0E00               	movwf	((c:PWM1_Duty@duty+1)),c
  4876  006938  6E02               	movlw	low(0FAh)
  4877  00693A  0EFA               	movwf	((c:PWM1_Duty@duty)),c
  4878  00693C  6E01               	call	_PWM1_Duty	;wreg free
  4879  00693E  ECE6  F034         	line	82
  4880                           	
  4881                           l51:
  4882  006942                     	return	;funcret
  4883  006942  0012               	opt stack 0
  4884                           GLOBAL	__end_of_Do
  4885                           	__end_of_Do:
  4886  006944                     	signat	_Do,89
  4887                           	global	_PWM1_Init
  4888                           
  4889 ;; *************** function _PWM1_Init *****************
  4890 ;; Defined at:
  4891 ;;		line 25 in file "motor2.c"
  4892 ;; Parameters:    Size  Location     Type
  4893 ;;  setDuty         4    0[COMRAM] long 
  4894 ;; Auto vars:     Size  Location     Type
  4895 ;;		None
  4896 ;; Return value:  Size  Location     Type
  4897 ;;                  1    wreg      void 
  4898 ;; Registers used:
  4899 ;;		None
  4900 ;; Tracked objects:
  4901 ;;		On entry : 0/0
  4902 ;;		On exit  : 0/0
  4903 ;;		Unchanged: 0/0
  4904 ;; Data sizes:     COMRAM   BANK0   BANK1   BANK2   BANK3   BANK4   BANK5
  4905 ;;      Params:         4       0       0       0       0       0       0
  4906 ;;      Locals:         0       0       0       0       0       0       0
  4907 ;;      Temps:          0       0       0       0       0       0       0
  4908 ;;      Totals:         4       0       0       0       0       0       0
  4909 ;;Total ram usage:        4 bytes
  4910 ;; Hardware stack levels used:    1
  4911 ;; This function calls:
  4912 ;;		Nothing
  4913 ;; This function is called by:
  4914 ;;		_Do
  4915 ;;		_Re
  4916 ;;		_Mi
  4917 ;;		_Fa
  4918 ;;		_So
  4919 ;; This function uses a non-reentrant model
  4920 ;;
  4921                           psect	text9,class=CODE,space=0,reloc=2,group=0
  4922                           	line	25
  4923                           global __ptext9
  4924                           __ptext9:
  4925  0068E4                     psect	text9
  4926                           	file	"motor2.c"
  4927                           	line	25
  4928                           	global	__size_of_PWM1_Init
  4929                           	__size_of_PWM1_Init	equ	__end_of_PWM1_Init-_PWM1_Init
  4930  0000                     	
  4931                           _PWM1_Init:
  4932  0068E4                     ;incstack = 0
  4933                           	opt	stack 28
  4934                           	line	27
  4935                           	
  4936                           l1884:
  4937  0068E4                     ;motor2.c: 25: ;motor2.c: 26: void PWM1_Duty2();motor2.c: 27: {
  4938                           	movff	(c:PWM1_Init@setDuty),(c:4043)	;volatile
  4939  0068E4  C001  FFCB         	line	30
  4940                           	
  4941                           l39:
  4942  0068E8                     	return	;funcret
  4943  0068E8  0012               	opt stack 0
  4944                           GLOBAL	__end_of_PWM1_Init
  4945                           	__end_of_PWM1_Init:
  4946  0068EA                     	signat	_PWM1_Init,4217
  4947                           	global	_PWM1_Duty
  4948                           
  4949 ;; *************** function _PWM1_Duty *****************
  4950 ;; Defined at:
  4951 ;;		line 32 in file "motor2.c"
  4952 ;; Parameters:    Size  Location     Type
  4953 ;;  duty            2    0[COMRAM] int 
  4954 ;; Auto vars:     Size  Location     Type
  4955 ;;		None
  4956 ;; Return value:  Size  Location     Type
  4957 ;;                  1    wreg      void 
  4958 ;; Registers used:
  4959 ;;		wreg, status,2, status,0
  4960 ;; Tracked objects:
  4961 ;;		On entry : 0/0
  4962 ;;		On exit  : 0/0
  4963 ;;		Unchanged: 0/0
  4964 ;; Data sizes:     COMRAM   BANK0   BANK1   BANK2   BANK3   BANK4   BANK5
  4965 ;;      Params:         2       0       0       0       0       0       0
  4966 ;;      Locals:         0       0       0       0       0       0       0
  4967 ;;      Temps:          2       0       0       0       0       0       0
  4968 ;;      Totals:         4       0       0       0       0       0       0
  4969 ;;Total ram usage:        4 bytes
  4970 ;; Hardware stack levels used:    1
  4971 ;; This function calls:
  4972 ;;		Nothing
  4973 ;; This function is called by:
  4974 ;;		_Do
  4975 ;;		_Re
  4976 ;;		_Mi
  4977 ;;		_Fa
  4978 ;;		_So
  4979 ;;		_Quiet
  4980 ;;		_main
  4981 ;; This function uses a non-reentrant model
  4982 ;;
  4983                           psect	text10,class=CODE,space=0,reloc=2,group=0
  4984                           	line	32
  4985                           global __ptext10
  4986                           __ptext10:
  4987  0069CC                     psect	text10
  4988                           	file	"motor2.c"
  4989                           	line	32
  4990                           	global	__size_of_PWM1_Duty
  4991                           	__size_of_PWM1_Duty	equ	__end_of_PWM1_Duty-_PWM1_Duty
  4992  0000                     	
  4993                           _PWM1_Duty:
  4994  0069CC                     ;incstack = 0
  4995                           	opt	stack 28
  4996                           	line	35
  4997                           	
  4998                           l1886:
  4999  0069CC                     ;motor2.c: 32: ;motor2.c: 33: void PWM1_Start();motor2.c: 35: 
  5000                           	movff	(c:PWM1_Duty@duty),(c:3986)	;volatile
  5001  0069CC  C001  FF92         	line	36
  5002                           ;motor2.c: 36:     CCP1CONbits.CCP1M0 = 0;
  5003                           	btfss	((c:3986)),c,1	;volatile
  5004  0069D0  A292               	bra	u1275
  5005  0069D2  D002               	bsf	((c:4029)),c,5	;volatile
  5006  0069D4  8ABD               	bra	u1277
  5007  0069D6  D001               	u1275:	
  5008  0069D8                     	bcf	((c:4029)),c,5	;volatile
  5009  0069D8  9ABD               	u1277:
  5010  0069DA                     	line	37
  5011                           ;motor2.c: 37:     CCP1CONbits.CCP1M1 = 0;
  5012                           	btfss	((c:3986)),c,0	;volatile
  5013  0069DA  A092               	bra	u1285
  5014  0069DC  D002               	bsf	((c:4029)),c,4	;volatile
  5015  0069DE  88BD               	bra	u1287
  5016  0069E0  D001               	u1285:	
  5017  0069E2                     	bcf	((c:4029)),c,4	;volatile
  5018  0069E2  98BD               	u1287:
  5019  0069E4                     	line	40
  5020                           	
  5021                           l1888:
  5022  0069E4                     ;motor2.c: 40: 
  5023                           	movff	(c:PWM1_Duty@duty),??_PWM1_Duty+0+0
  5024  0069E4  C001  F003         	movff	(c:PWM1_Duty@duty+1),??_PWM1_Duty+0+0+1
  5025  0069E8  C002  F004         	rlcf	(??_PWM1_Duty+0+1),c,w
  5026  0069EC  3404               	rrcf	(??_PWM1_Duty+0+1),c
  5027  0069EE  3204               	rrcf	(??_PWM1_Duty+0+0),c
  5028  0069F0  3203               	rlcf	(??_PWM1_Duty+0+1),c,w
  5029  0069F2  3404               	rrcf	(??_PWM1_Duty+0+1),c
  5030  0069F4  3204               	rrcf	(??_PWM1_Duty+0+0),c
  5031  0069F6  3203               	movf	(??_PWM1_Duty+0+0),c,w
  5032  0069F8  5003               	movwf	((c:4030)),c	;volatile
  5033  0069FA  6EBE               	line	43
  5034                           	
  5035                           l42:
  5036  0069FC                     	return	;funcret
  5037  0069FC  0012               	opt stack 0
  5038                           GLOBAL	__end_of_PWM1_Duty
  5039                           	__end_of_PWM1_Duty:
  5040  0069FE                     	signat	_PWM1_Duty,4217
  5041                           	global	_PWM1_Start
  5042                           
  5043 ;; *************** function _PWM1_Start *****************
  5044 ;; Defined at:
  5045 ;;		line 52 in file "motor2.c"
  5046 ;; Parameters:    Size  Location     Type
  5047 ;;		None
  5048 ;; Auto vars:     Size  Location     Type
  5049 ;;		None
  5050 ;; Return value:  Size  Location     Type
  5051 ;;                  1    wreg      void 
  5052 ;; Registers used:
  5053 ;;		None
  5054 ;; Tracked objects:
  5055 ;;		On entry : 0/0
  5056 ;;		On exit  : 0/0
  5057 ;;		Unchanged: 0/0
  5058 ;; Data sizes:     COMRAM   BANK0   BANK1   BANK2   BANK3   BANK4   BANK5
  5059 ;;      Params:         0       0       0       0       0       0       0
  5060 ;;      Locals:         0       0       0       0       0       0       0
  5061 ;;      Temps:          0       0       0       0       0       0       0
  5062 ;;      Totals:         0       0       0       0       0       0       0
  5063 ;;Total ram usage:        0 bytes
  5064 ;; Hardware stack levels used:    1
  5065 ;; This function calls:
  5066 ;;		Nothing
  5067 ;; This function is called by:
  5068 ;;		_main
  5069 ;; This function uses a non-reentrant model
  5070 ;;
  5071                           psect	text11,class=CODE,space=0,reloc=2,group=0
  5072                           	line	52
  5073                           global __ptext11
  5074                           __ptext11:
  5075  006902                     psect	text11
  5076                           	file	"motor2.c"
  5077                           	line	52
  5078                           	global	__size_of_PWM1_Start
  5079                           	__size_of_PWM1_Start	equ	__end_of_PWM1_Start-_PWM1_Start
  5080  0000                     	
  5081                           _PWM1_Start:
  5082  006902                     ;incstack = 0
  5083                           	opt	stack 30
  5084                           	line	55
  5085                           	
  5086                           l930:
  5087  006902                     ;motor2.c: 55:         PWM1CONbits.PRSEN = 1;
  5088                           	bcf	((c:4029)),c,0	;volatile
  5089  006902  90BD               	line	56
  5090                           ;motor2.c: 56: 
  5091                           	bcf	((c:4029)),c,1	;volatile
  5092  006904  92BD               	line	57
  5093                           ;motor2.c: 57: }
  5094                           	bsf	((c:4029)),c,2	;volatile
  5095  006906  84BD               	line	58
  5096                           ;motor2.c: 58: 
  5097                           	bsf	((c:4029)),c,3	;volatile
  5098  006908  86BD               	line	60
  5099                           ;motor2.c: 60: {
  5100                           	bsf	((c:4042)),c,2	;volatile
  5101  00690A  84CA               	line	62
  5102                           ;motor2.c: 62:    PWM1_Duty(250);
  5103                           	bcf	((c:4051)),c,4	;volatile
  5104  00690C  98D3               	line	63
  5105                           ;motor2.c: 63: }
  5106                           	bsf	((c:4051)),c,5	;volatile
  5107  00690E  8AD3               	line	64
  5108                           ;motor2.c: 64: void Re()
  5109                           	bsf	((c:4051)),c,6	;volatile
  5110  006910  8CD3               	line	66
  5111                           ;motor2.c: 66:     PWM1_Init(199);
  5112                           	bcf	((c:3988)),c,2	;volatile
  5113  006912  9494               	line	67
  5114                           ;motor2.c: 67:     PWM1_Duty(250);
  5115                           	bcf	((c:3989)),c,7	;volatile
  5116  006914  9E95               	line	68
  5117                           ;motor2.c: 68: }
  5118                           	bcf	((c:3989)),c,6	;volatile
  5119  006916  9C95               	line	69
  5120                           ;motor2.c: 69: void Mi()
  5121                           	bcf	((c:3989)),c,5	;volatile
  5122  006918  9A95               	line	71
  5123                           ;motor2.c: 71:     PWM1_Init(175);
  5124                           	bcf	((c:4042)),c,0	;volatile
  5125  00691A  90CA               	line	72
  5126                           ;motor2.c: 72:     PWM1_Duty(250);
  5127                           	bsf	((c:4042)),c,1	;volatile
  5128  00691C  82CA               	line	74
  5129                           ;motor2.c: 74: void Fa()
  5130                           	bsf	((c:4023)),c,7	;volatile
  5131  00691E  8EB7               	line	76
  5132                           	
  5133                           l48:
  5134  006920                     	return	;funcret
  5135  006920  0012               	opt stack 0
  5136                           GLOBAL	__end_of_PWM1_Start
  5137                           	__end_of_PWM1_Start:
  5138  006922                     	signat	_PWM1_Start,89
  5139                           	GLOBAL	__activetblptr
  5140                           __activetblptr	EQU	0
  5141  0000                     	psect	intsave_regs,class=BIGRAM,space=1,noexec
  5142                           	PSECT	rparam,class=COMRAM,space=1,noexec
  5143                           	GLOBAL	__Lrparam
  5144                           	FNCONF	rparam,??,?
  5145                           	GLOBAL	___rparam_used
  5146                           	___rparam_used EQU 1
  5147  0000                     	GLOBAL	___param_bank
  5148                           	___param_bank EQU 0
  5149  0000                     GLOBAL	__Lparam, __Hparam
  5150                           GLOBAL	__Lrparam, __Hrparam
  5151                           __Lparam	EQU	__Lrparam
  5152  0000                     __Hparam	EQU	__Hrparam
  5153  0000                     	end


Data Sizes:
    Strings     0
    Constant    0
    Data        0
    BSS         2
    Persistent  0
    Stack       0

Auto Spaces:
    Space          Size  Autos    Used
    COMRAM          127     10      12
    BANK0           128      0       0
    BANK1           256      0       0
    BANK2           256      0       0
    BANK3           256      0       0
    BANK4           256      0       0
    BANK5           244      0       0

Pointer List with Targets:

    None.

Critical Paths under _main in COMRAM

    _main->_PWM1_Duty
    _So->_PWM1_Duty
    _So->_PWM1_Init
    _Re->_PWM1_Duty
    _Re->_PWM1_Init
    _Quiet->_PWM1_Duty
    _Mi->_PWM1_Duty
    _Mi->_PWM1_Init
    _Fa->_PWM1_Duty
    _Fa->_PWM1_Init
    _Do->_PWM1_Duty
    _Do->_PWM1_Init

Critical Paths under _main in BANK0

    None.

Critical Paths under _main in BANK1

    None.

Critical Paths under _main in BANK2

    None.

Critical Paths under _main in BANK3

    None.

Critical Paths under _main in BANK4

    None.

Critical Paths under _main in BANK5

    None.

Call Graph Tables:

 ---------------------------------------------------------------------------------
 (Depth) Function   	        Calls       Base Space   Used Autos Params    Refs
 ---------------------------------------------------------------------------------
 (0) _main                                                 6     6      0   10965
                                              4 COMRAM     6     6      0
                                 _Do
                                 _Fa
                                 _Mi
                          _PWM1_Duty
                         _PWM1_Start
                                 _Re
                                 _So
                          _small_bee
 ---------------------------------------------------------------------------------
 (1) _small_bee                                            0     0      0    5496
                                 _Do
                                 _Fa
                                 _Mi
                              _Quiet
                                 _Re
                                 _So
                              _delay
 ---------------------------------------------------------------------------------
 (2) _delay                                                2     2      0      30
                                              0 COMRAM     2     2      0
 ---------------------------------------------------------------------------------
 (2) _So                                                   0     0      0     978
                          _PWM1_Duty
                          _PWM1_Init
 ---------------------------------------------------------------------------------
 (2) _Re                                                   0     0      0     978
                          _PWM1_Duty
                          _PWM1_Init
 ---------------------------------------------------------------------------------
 (2) _Quiet                                                0     0      0     576
                          _PWM1_Duty
 ---------------------------------------------------------------------------------
 (2) _Mi                                                   0     0      0     978
                          _PWM1_Duty
                          _PWM1_Init
 ---------------------------------------------------------------------------------
 (2) _Fa                                                   0     0      0     978
                          _PWM1_Duty
                          _PWM1_Init
 ---------------------------------------------------------------------------------
 (2) _Do                                                   0     0      0     978
                          _PWM1_Duty
                          _PWM1_Init
 ---------------------------------------------------------------------------------
 (3) _PWM1_Init                                            4     0      4     402
                                              0 COMRAM     4     0      4
 ---------------------------------------------------------------------------------
 (3) _PWM1_Duty                                            4     2      2     576
                                              0 COMRAM     4     2      2
 ---------------------------------------------------------------------------------
 (1) _PWM1_Start                                           0     0      0       0
 ---------------------------------------------------------------------------------
 Estimated maximum stack depth 3
 ---------------------------------------------------------------------------------

 Call Graph Graphs:

 _main (ROOT)
   _Do
     _PWM1_Duty
     _PWM1_Init
   _Fa
     _PWM1_Duty
     _PWM1_Init
   _Mi
     _PWM1_Duty
     _PWM1_Init
   _PWM1_Duty
   _PWM1_Start
   _Re
     _PWM1_Duty
     _PWM1_Init
   _So
     _PWM1_Duty
     _PWM1_Init
   _small_bee
     _Do
       _PWM1_Duty
       _PWM1_Init
     _Fa
       _PWM1_Duty
       _PWM1_Init
     _Mi
       _PWM1_Duty
       _PWM1_Init
     _Quiet
       _PWM1_Duty
     _Re
       _PWM1_Duty
       _PWM1_Init
     _So
       _PWM1_Duty
       _PWM1_Init
     _delay

 Address spaces:
Name               Size   Autos  Total    Cost      Usage
BIGRAM             5F3      0       0      16        0.0%
EEDATA             100      0       0       0        0.0%
BITBANK4           100      0       0      11        0.0%
BANK4              100      0       0      12        0.0%
BITBANK3           100      0       0       9        0.0%
BANK3              100      0       0      10        0.0%
BITBANK2           100      0       0       7        0.0%
BANK2              100      0       0       8        0.0%
BITBANK1           100      0       0       5        0.0%
BANK1              100      0       0       6        0.0%
BITBANK5            F4      0       0      15        0.0%
BANK5               F4      0       0      13        0.0%
BITBANK0            80      0       0       3        0.0%
BANK0               80      0       0       4        0.0%
BITCOMRAM           7F      0       0       0        0.0%
COMRAM              7F      A       C       1        9.4%
BITSFR_5             0      0       0     200        0.0%
SFR_5                0      0       0     200        0.0%
BITSFR_4             0      0       0     200        0.0%
SFR_4                0      0       0     200        0.0%
BITSFR_3             0      0       0     200        0.0%
SFR_3                0      0       0     200        0.0%
BITSFR_2             0      0       0     200        0.0%
SFR_2                0      0       0     200        0.0%
BITSFR_1             0      0       0     200        0.0%
SFR_1                0      0       0     200        0.0%
BITSFR               0      0       0     200        0.0%
SFR                  0      0       0     200        0.0%
STACK                0      0       0       2        0.0%
NULL                 0      0       0       0        0.0%
ABS                  0      0       C      14        0.0%
DATA                 0      0       C      17        0.0%
CODE                 0      0       0       0        0.0%


Microchip Technology PIC18 Macro Assembler V2.00 build -1524193055 
Symbol Table                                                                                   Wed Jan 02 22:07:31 2019

                     l42 69FC                       l51 6942                       l60 6964  
                     l54 69A8                       l70 6A96                       l39 68E8  
                     l63 69CA                       l71 6A72                       l48 6920  
                     l80 6BEE                       l57 6986                       l73 6A66  
                     l81 6C18                       l66 6900                       l74 6A96  
                     l90 6D8A                       l82 6C42                       l91 6DB4  
                     l83 6C68                       l92 6DDE                       l84 6C92  
                     l69 6A2A                       l93 6E08                       l85 6CBC  
                     l77 6B9A                       l94 6E32                       l86 6CE6  
                     l78 7DBE                       l95 6E5C                       l87 6D10  
                     l79 6BC4                       l96 6E86                       l88 6D3A  
                     l97 6EB0                       l89 6D64                       l98 6EDA  
                     l99 6F04                       _Fa 6944                       u30 6A22  
                     u31 6A1E                       u40 6A38                       u41 6A34  
                     u50 6A46                       u51 6A42                       u60 6A54  
                     u61 6A50                       u70 6A62                       u71 6A5E  
                     _Do 6922                       u80 6A92                       u81 6A8E  
                     _Mi 6966                       _Re 6988                       _So 69AA  
                    ?_Fa 0001                      ?_Do 0001                      ?_Mi 0001  
                    ?_Re 0001                      ?_So 0001                      l100 6F2E  
                    l101 6F58                      l110 70CE                      l102 6F82  
                    l111 70F8                      l103 6FAC                      l120 726A  
                    l112 711E                      l104 6FD6                      l200 6B14  
                    l121 7294                      l113 7148                      l105 6FFC  
                    l201 6B5C                      l130 740A                      l122 72BE  
                    l114 7172                      l106 7026                      l202 6B2A  
                    l131 7430                      l123 72E8                      l115 719C  
                    l107 7050                      l203 6B58                      l140 75A6  
                    l132 7456                      l124 7312                      l116 71C6  
                    l108 707A                      l204 6B40                      l141 75D0  
                    l133 7480                      l125 733C                      l117 71F0  
                    l109 70A4                      l205 6B54                      l150 7746  
                    l142 75FA                      l134 74AA                      l126 7366  
                    l118 721A                      l206 6B68                      l151 7770  
                    l143 7624                      l135 74D4                      l127 7390  
                    l119 7240                      l207 6B6C                      l160 78EA  
                    l152 779A                      l144 764E                      l136 74FE  
                    l128 73BA                      l208 6B6C                      l161 7914  
                    l153 77C4                      l145 7678                      l137 7528  
                    l129 73E4                      l170 7A86                      l162 793A  
                    l154 77EE                      l146 76A2                      l138 7552  
                    l171 7AB0                      l163 7964                      l155 7818  
                    l147 76C8                      l139 757C                      l180 7C26  
                    l172 7ADA                      l164 798E                      l156 7842  
                    l148 76F2                      l181 7C50                      l173 7B04  
                    l165 79B8                      l157 786C                      l149 771C  
                    l190 7DBE                      l182 7C7A                      l174 7B2E  
                    l166 79E2                      l158 7896                      l183 7CA4  
                    l175 7B58                      l167 7A0C                      l159 78C0  
                    l184 7CCE                      l176 7B7E                      l168 7A36  
                    l185 7CF8                      l177 7BA8                      l169 7A5C  
                    l186 7D22                      l178 7BD2                      l187 7D48  
                    l179 7BFC                      l195 6ACA                      l188 7D6E  
                    l196 6AE6                      l189 7D94                      l197 6B64  
                    l198 6AFE                      l199 6B60                      l920 6A46  
                    l912 69FE                      l930 6902                      l922 6A54  
                    l914 6A06                      l924 6A66                      l916 6A26  
                    l926 6A72                      l918 6A38                      l928 6A76  
                    _RD0 007C18                      _RD1 007C19                      _RC3 007C13  
                    _RD2 007C1A                      _RD3 007C1B                      _PR2 000FCB  
           __CFG_CPD$OFF 000000                     ??_Fa 0005                     ??_Do 0005  
                   ??_Mi 0005                     ??_Re 0005                     ??_So 0005  
           __CFG_LVP$OFF 000000             __CFG_WDT$OFF 000000                     l2000 6D3A  
                   l2010 6D68                     l2002 6D42                     l2100 6F48  
                   l2020 6DA4                     l2012 6D7A                     l2004 6D54  
                   l2110 6F7E                     l2102 6F54                     l2030 6DDA  
                   l2022 6DB0                     l2014 6D86                     l2006 6D60  
                   l2200 7148                     l2120 6FAC                     l2112 6F82  
                   l2104 6F58                     l2040 6E08                     l2032 6DDE  
                   l2024 6DB4                     l2016 6D8A                     l2008 6D64  
                   l2210 717A                     l2202 7150                     l2130 6FDA  
                   l2122 6FB4                     l2114 6F8A                     l2106 6F60  
                   l2050 6E3A                     l2042 6E10                     l2034 6DE6  
                   l2026 6DBC                     l2018 6D92                     l2300 7356  
                   l2220 71B6                     l2212 718C                     l2204 7162  
                   l2140 7016                     l2132 6FEC                     l2124 6FC6  
                   l2116 6F9C                     l2108 6F72                     l2060 6E76  
                   l2052 6E4C                     l2044 6E22                     l2036 6DF8  
                   l2028 6DCE                     l2310 738C                     l2302 7362  
                   l2230 71EC                     l2222 71C2                     l2214 7198  
                   l2206 716E                     l2150 704C                     l2142 7022  
                   l2134 6FF8                     l2126 6FD2                     l2118 6FA8  
                   l2070 6EAC                     l2062 6E82                     l2054 6E58  
                   l2046 6E2E                     l2038 6E04                     l2400 7552  
                   l2320 73BA                     l2312 7390                     l2304 7366  
                   l2240 721A                     l2232 71F0                     l2224 71C6  
                   l2216 719C                     l2208 7172                     l2160 707A  
                   l2152 7050                     l2144 7026                     l2136 6FFC  
                   l2128 6FD6                     l2080 6EDA                     l2072 6EB0  
                   l2064 6E86                     l2056 6E5C                     l2048 6E32  
                   l2410 7584                     l2402 755A                     l2330 73E8  
                   l2322 73C2                     l2314 7398                     l2306 736E  
                   l2250 7248                     l2242 721E                     l2234 71F8  
                   l2226 71CE                     l2218 71A4                     l2170 70AC  
                   l2162 7082                     l2154 7058                     l2146 702E  
                   l2138 7004                     l2090 6F0C                     l2082 6EE2  
                   l2074 6EB8                     l2066 6E8E                     l2058 6E64  
                   l2500 7760                     l2420 75C0                     l2412 7596  
                   l2404 756C                     l2340 7420                     l2332 73FA  
                   l2324 73D4                     l2316 73AA                     l2308 7380  
                   l2260 7284                     l2252 725A                     l2244 7230  
                   l2236 720A                     l2228 71E0                     l2180 70E8  
                   l2172 70BE                     l2164 7094                     l2156 706A  
                   l2148 7040                     l2092 6F1E                     l2084 6EF4  
                   l2076 6ECA                     l2068 6EA0                     l2510 7796  
                   l2502 776C                     l2430 75F6                     l2422 75CC  
                   l2414 75A2                     l2406 7578                     l2350 7452  
                   l2342 742C                     l2334 7406                     l2326 73E0  
                   l2318 73B6                     l2270 72BA                     l2262 7290  
                   l2254 7266                     l2246 723C                     l2238 7216  
                   l2190 711A                     l2182 70F4                     l2174 70CA  
                   l2166 70A0                     l2158 7076                     l2094 6F2A  
                   l2086 6F00                     l2078 6ED6                     l2600 7964  
                   l2520 77C4                     l2512 779A                     l2504 7770  
                   l2440 7624                     l2432 75FA                     l2424 75D0  
                   l2416 75A6                     l2408 757C                     l2360 7480  
                   l2352 7456                     l2344 7430                     l2336 740A  
                   l2328 73E4                     l2280 72E8                     l2272 72BE  
                   l2264 7294                     l2256 726A                     l2248 7240  
                   l2192 711E                     l2184 70F8                     l2176 70CE  
                   l2168 70A4                     l2096 6F2E                     l2088 6F04  
                   l2610 7996                     l2602 796C                     l2530 77F6  
                   l2522 77CC                     l2514 77A2                     l2506 7778  
                   l2450 7656                     l2442 762C                     l2434 7602  
                   l2426 75D8                     l2418 75AE                     l2370 74B2  
                   l2362 7488                     l2354 745E                     l2346 7434  
                   l2338 740E                     l2290 731A                     l2282 72F0  
                   l2274 72C6                     l2266 729C                     l2258 7272  
                   l2194 7126                     l2186 70FC                     l2178 70D6  
                   l2098 6F36                     l1900 697A                     l2700 7B6E  
                   l2620 79D2                     l2612 79A8                     l2604 797E  
                   l2540 7832                     l2532 7808                     l2524 77DE  
                   l2516 77B4                     l2508 778A                     l2460 7692  
                   l2452 7668                     l2444 763E                     l2436 7614  
                   l2428 75EA                     l2380 74EE                     l2372 74C4  
                   l2364 749A                     l2356 7470                     l2348 7446  
                   l2292 732C                     l2284 7302                     l2276 72D8  
                   l2268 72AE                     l2196 7138                     l2188 710E  
                   l1902 6944                     l1910 68F4                     l2710 7BA4  
                   l2702 7B7A                     l2630 7A08                     l2622 79DE  
                   l2614 79B4                     l2606 798A                     l2550 7868  
                   l2542 783E                     l2534 7814                     l2526 77EA  
                   l2518 77C0                     l2470 76C4                     l2462 769E  
                   l2454 7674                     l2446 764A                     l2438 7620  
                   l2390 7524                     l2382 74FA                     l2374 74D0  
                   l2366 74A6                     l2358 747C                     l2294 7338  
                   l2286 730E                     l2278 72E4                     l2198 7144  
                   l1904 6958                     l2800 7D6E                     l2720 7BD2  
                   l2712 7BA8                     l2704 7B7E                     l2640 7A36  
                   l2632 7A0C                     l2624 79E2                     l2616 79B8  
                   l2608 798E                     l2560 7896                     l2552 786C  
                   l2544 7842                     l2536 7818                     l2528 77EE  
                   l2480 76F2                     l2472 76C8                     l2464 76A2  
                   l2456 7678                     l2448 764E                     l2392 7528  
                   l2384 74FE                     l2376 74D4                     l2368 74AA  
                   l2296 733C                     l2288 7312                     l1920 6B9A  
                   l1912 6B70                     l1906 69AA                     l2810 7D9C  
                   l2802 7D72                     l2730 7C04                     l2722 7BDA  
                   l2714 7BB0                     l2706 7B86                     l2650 7A64  
                   l2642 7A3A                     l2634 7A14                     l2626 79EA  
                   l2618 79C0                     l2570 78C8                     l2562 789E  
                   l2554 7874                     l2546 784A                     l2538 7820  
                   l2490 7724                     l2482 76FA                     l2474 76D0  
                   l2466 76A6                     l2458 7680                     l2394 7530  
                   l2386 7506                     l2378 74DC                     l2298 7344  
                   l1930 6BCC                     l1922 6BA2                     l1914 6B78  
                   l1908 69BE                     l2812 7DAE                     l2804 7D84  
                   l2740 7C40                     l2732 7C16                     l2724 7BEC  
                   l2716 7BC2                     l2708 7B98                     l2660 7AA0  
                   l2652 7A76                     l2644 7A4C                     l2636 7A26  
                   l2628 79FC                     l2580 7904                     l2572 78DA  
                   l2564 78B0                     l2556 7886                     l2548 785C  
                   l2492 7736                     l2484 770C                     l2476 76E2  
                   l2468 76B8                     l2396 7542                     l2388 7518  
                   l1940 6C08                     l1932 6BDE                     l1924 6BB4  
                   l1916 6B8A                     l2820 6AA4                     l2814 7DBA  
                   l2806 7D90                     l2750 7C76                     l2742 7C4C  
                   l2734 7C22                     l2726 7BF8                     l2718 7BCE  
                   l2670 7AD6                     l2662 7AAC                     l2654 7A82  
                   l2646 7A58                     l2638 7A32                     l2590 7936  
                   l2582 7910                     l2574 78E6                     l2566 78BC  
                   l2558 7892                     l2494 7742                     l2486 7718  
                   l2478 76EE                     l2398 754E                     l1950 6C3E  
                   l1942 6C14                     l1934 6BEA                     l1926 6BC0  
                   l1918 6B96                     l2830 6ABA                     l2822 6AAC  
                   l2808 7D94                     l2760 7CA4                     l2752 7C7A  
                   l2744 7C50                     l2736 7C26                     l2728 7BFC  
                   l2680 7B04                     l2672 7ADA                     l2664 7AB0  
                   l2656 7A86                     l2648 7A5C                     l2592 793A  
                   l2584 7914                     l2576 78EA                     l2568 78C0  
                   l2496 7746                     l2488 771C                     l1960 6C68  
                   l1952 6C42                     l1944 6C18                     l1936 6BEE  
                   l1928 6BC4                     l2840 6AD8                     l2832 6ABC  
                   l2824 6AB4                     l2816 6A98                     l1890 6922  
                   l2770 7CD6                     l2762 7CAC                     l2754 7C82  
                   l2746 7C58                     l2738 7C2E                     l2690 7B36  
                   l2682 7B0C                     l2674 7AE2                     l2666 7AB8  
                   l2658 7A8E                     l2594 7942                     l2586 7918  
                   l2578 78F2                     l2498 774E                     l1970 6C9A  
                   l1962 6C70                     l1954 6C46                     l1946 6C20  
                   l1938 6BF6                     l2850 6B22                     l2842 6ADC  
                   l2834 6ABE                     l2826 6AB6                     l2818 6A9C  
                   l1884 68E4                     l1892 6936                     l2780 7D12  
                   l2772 7CE8                     l2764 7CBE                     l2756 7C94  
                   l2748 7C6A                     l2692 7B48                     l2684 7B1E  
                   l2676 7AF4                     l2668 7ACA                     l2596 7954  
                   l2588 792A                     l1980 6CD6                     l1972 6CAC  
                   l1964 6C82                     l1956 6C58                     l1948 6C32  
                   l2852 6B38                     l2844 6AF4                     l2836 6AC2  
                   l2828 6AB8                     l1886 69CC                     l1894 6988  
                   l2790 7D44                     l2782 7D1E                     l2774 7CF4  
                   l2766 7CCA                     l2758 7CA0                     l2694 7B54  
                   l2686 7B2A                     l2678 7B00                     l2598 7960  
                   l1990 6D0C                     l1982 6CE2                     l1974 6CB8  
                   l1966 6C8E                     l1958 6C64                     l2854 6B40  
                   l2846 6AF6                     l2838 6ACA                     l1888 69E4  
                   l1896 699C                     l2792 7D48                     l2784 7D22  
                   l2776 7CF8                     l2768 7CCE                     l2696 7B58  
                   l2688 7B2E                     l1992 6D10                     l1984 6CE6  
                   l1976 6CBC                     l1968 6C92                     l2856 6B4C  
                   l2848 6B0C                     l1898 6966                     l2794 7D4C  
                   l2786 7D26                     l2778 7D00                     l2698 7B5C  
                   l1994 6D18                     l1986 6CEE                     l1978 6CC4  
                   l2796 7D5E                     l2788 7D38                     l1996 6D2A  
                   l1988 6D00                     l2798 7D6A                     l1998 6D36  
                   u2000 770C                     u2001 7708                     u2010 7736  
                   u2011 7732                     u2100 78B0                     u2020 7760  
                   u1300 6BB4                     u2101 78AC                     u2021 775C  
                   u1301 6BB0                     u2110 78DA                     u2030 778A  
                   u1310 6BDE                     u2111 78D6                     u2031 7786  
                   u1311 6BDA                     u2200 7A4C                     u2120 7904  
                   u2040 77B4                     u1400 6D54                     u1320 6C08  
                   u2201 7A48                     u2121 7900                     u2041 77B0  
                   u1401 6D50                     u1321 6C04                     u2210 7A76  
                   u2130 792A                     u2050 77DE                     u1410 6D7A  
                   u1330 6C32                     u2211 7A72                     u2131 7926  
                   u2051 77DA                     u1411 6D76                     u1331 6C2E  
                   u2300 7BEC                     u2220 7AA0                     u2140 7954  
                   u2060 7808                     u1500 6EF4                     u1420 6DA4  
                   u1340 6C58                     u2301 7BE8                     u2221 7A9C  
                   u2141 7950                     u2061 7804                     u1501 6EF0  
                   u1421 6DA0                     u1341 6C54                     _LATA 000F89  
                   u2310 7C16                     u2230 7ACA                     u2150 797E  
                   u2070 7832                     u1510 6F1E                     u1430 6DCE  
                   u1350 6C82                     u2311 7C12                     u2231 7AC6  
                   u2151 797A                     u2071 782E                     u1511 6F1A  
                   u1431 6DCA                     u1351 6C7E                     u2400 7D84  
                   u2320 7C40                     u2240 7AF4                     u2160 79A8  
                   u2080 785C                     u1600 7094                     u1520 6F48  
                   u1440 6DF8                     u1360 6CAC                     u2401 7D80  
                   u2321 7C3C                     u2241 7AF0                     u2161 79A4  
                   u2081 7858                     u1601 7090                     u1521 6F44  
                   u1441 6DF4                     u1361 6CA8                     u2410 7DAE  
                   u2330 7C6A                     u2250 7B1E                     u2170 79D2  
                   u2090 7886                     u1610 70BE                     u1530 6F72  
                   u1450 6E22                     u1370 6CD6                     u1290 6B8A  
                   u1275 69D8                     u2411 7DAA                     u2331 7C66  
                   u2251 7B1A                     u2171 79CE                     u2091 7882  
                   u1611 70BA                     u1531 6F6E                     u1451 6E1E  
                   u1371 6CD2                     u1291 6B86                     u2340 7C94  
                   u2260 7B48                     u2180 79FC                     u1700 7230  
                   u1620 70E8                     u1540 6F9C                     u1460 6E4C  
                   u1380 6D00                     u2420 6AD8                     u1285 69E2  
                   u1277 69DA                     u2341 7C90                     u2261 7B44  
                   u2181 79F8                     u1701 722C                     u1621 70E4  
                   u1541 6F98                     u1461 6E48                     u1381 6CFC  
                   u2421 6AD4                     u2350 7CBE                     u2270 7B6E  
                   u2190 7A26                     u1710 725A                     u1630 710E  
                   u1550 6FC6                     u1470 6E76                     u1390 6D2A  
                   u2430 6AF4                     u1287 69E4                     u2351 7CBA  
                   u2271 7B6A                     u2191 7A22                     u1711 7256  
                   u1631 710A                     u1551 6FC2                     u1471 6E72  
                   u1391 6D26                     u2431 6AF0                     u2360 7CE8  
                   u2280 7B98                     u1800 73D4                     u1720 7284  
                   u1640 7138                     u1560 6FEC                     u1480 6EA0  
                   u2440 6B0C                     u2361 7CE4                     u2281 7B94  
                   u1801 73D0                     u1721 7280                     u1641 7134  
                   u1561 6FE8                     u1481 6E9C                     u2441 6B08  
                   u2370 7D12                     u2290 7BC2                     u1810 73FA  
                   u1730 72AE                     u1650 7162                     u1570 7016  
                   u1490 6ECA                     u2450 6B22                     u2371 7D0E  
                   u2291 7BBE                     u1811 73F6                     u1731 72AA  
                   u1651 715E                     u1571 7012                     u1491 6EC6  
                   u2451 6B1E                     u2380 7D38                     u1900 756C  
                   u1820 7420                     u1740 72D8                     u1660 718C  
                   u1580 7040                     u2460 6B38                     u2381 7D34  
                   u1901 7568                     u1821 741C                     u1741 72D4  
                   u1661 7188                     u1581 703C                     u2461 6B34  
                   u2390 7D5E                     u1910 7596                     u1830 7446  
                   u1750 7302                     u1670 71B6                     u1590 706A  
                   u2391 7D5A                     u1911 7592                     u1831 7442  
                   u1751 72FE                     u1671 71B2                     u1591 7066  
                   u1920 75C0                     u1840 7470                     u1760 732C  
                   u1680 71E0                     u1921 75BC                     u1841 746C  
                   u1761 7328                     u1681 71DC                     u1930 75EA  
                   u1850 749A                     u1770 7356                     u1690 720A  
                   u1931 75E6                     u1851 7496                     u1771 7352  
                   u1691 7206                     u1940 7614                     u1860 74C4  
                   u1780 7380                     u1941 7610                     u1861 74C0  
                   u1781 737C                     u1950 763E                     u1870 74EE  
                   u1790 73AA                     u1951 763A                     u1871 74EA  
                   u1791 73A6                     u1960 7668                     u1880 7518  
                   u1961 7664                     u1881 7514                     u1970 7692  
                   u1890 7542                     u1971 768E                     u1891 753E  
                   u1980 76B8                     u1981 76B4                     u1990 76E2  
                   u1991 76DE                     _flag 000B                     _main 6A98  
          __CFG_BOREN$ON 000000                     start 0000             ___param_bank 000000  
                  ?_main 0001                    _TRISA 000F92            __CFG_PWRT$OFF 000000  
                  _Quiet 68F4       __size_of_PWM1_Init 0006       __size_of_PWM1_Duty 0032  
            ?_PWM1_Start 0001                    _delay 69FE                    main@i 0005  
                  main@j 0007                    status 000FD8          __initialization 68EA  
           __end_of_main 6B70                   ??_main 0005            __activetblptr 000000  
                 ?_Quiet 0001                   ?_delay 0001                   _CCPR1L 000FBE  
      __end_of_PWM1_Init 68EA        __end_of_PWM1_Duty 69FE      __size_of_PWM1_Start 0020  
                 delay@i 0001               __accesstop 0080  __end_of__initialization 68EE  
          ___rparam_used 000001           __pcstackCOMRAM 0001            __end_of_Quiet 6902  
          __end_of_delay 6A98               __end_of_Fa 6966               __end_of_Do 6944  
             __end_of_Mi 6988               __end_of_Re 69AA               __end_of_So 69CC  
                ??_Quiet 0005                  ??_delay 0001       __size_of_small_bee 1250  
           ??_PWM1_Start 0001                  __Hparam 0000                  __Lparam 0000  
     __end_of_PWM1_Start 6922                  __pcinit 68EA                  __ramtop 0600  
                __ptext0 6A98                  __ptext1 6B70                  __ptext2 69FE  
                __ptext3 69AA                  __ptext4 6988                  __ptext5 68F4  
                __ptext6 6966                  __ptext7 6944                  __ptext8 6922  
                __ptext9 68E4                _T2CONbits 000FCA     end_of_initialization 68EE  
      __end_of_small_bee 7DC0                _PWM1_Init 68E4                _PWM1_Duty 69CC  
              _TRISAbits 000F92                _TRISCbits 000F94                _TRISDbits 000F95  
            _CCP1CONbits 000FBD               ?_PWM1_Init 0001               ?_PWM1_Duty 0001  
    start_initialization 68EA         __CFG_OSC$INTIO67 000000              __pbssCOMRAM 000B  
            ??_PWM1_Init 0005              ??_PWM1_Duty 0003           __size_of_Quiet 000E  
         __size_of_delay 009A              __size_of_Fa 0022              __size_of_Do 0022  
            __size_of_Mi 0022              __size_of_Re 0022              __size_of_So 0022  
               _LATAbits 000F89            PWM1_Duty@duty 0001                _small_bee 6B70  
               __Hrparam 0000         PWM1_Init@setDuty 0001                 __Lrparam 0000  
             ?_small_bee 0001                 __ptext10 69CC                 __ptext11 6902  
          __size_of_main 00D8                 main@flag 0009              _PWM1CONbits 000FB7  
             _OSCCONbits 000FD3              ??_small_bee 0005               _PWM1_Start 6902  
